
varrick:     file format elf32-i386


Disassembly of section .init:

080482f8 <_init>:
 80482f8:	53                   	push   ebx
 80482f9:	83 ec 08             	sub    esp,0x8
 80482fc:	e8 9f 00 00 00       	call   80483a0 <__x86.get_pc_thunk.bx>
 8048301:	81 c3 ff 4c 00 00    	add    ebx,0x4cff
 8048307:	8b 83 fc ff ff ff    	mov    eax,DWORD PTR [ebx-0x4]
 804830d:	85 c0                	test   eax,eax
 804830f:	74 05                	je     8048316 <_init+0x1e>
 8048311:	e8 3a 00 00 00       	call   8048350 <__gmon_start__@plt>
 8048316:	83 c4 08             	add    esp,0x8
 8048319:	5b                   	pop    ebx
 804831a:	c3                   	ret    

Disassembly of section .plt:

08048320 <__stack_chk_fail@plt-0x10>:
 8048320:	ff 35 04 d0 04 08    	push   DWORD PTR ds:0x804d004
 8048326:	ff 25 08 d0 04 08    	jmp    DWORD PTR ds:0x804d008
 804832c:	00 00                	add    BYTE PTR [eax],al
	...

08048330 <__stack_chk_fail@plt>:
 8048330:	ff 25 0c d0 04 08    	jmp    DWORD PTR ds:0x804d00c
 8048336:	68 00 00 00 00       	push   0x0
 804833b:	e9 e0 ff ff ff       	jmp    8048320 <_init+0x28>

08048340 <puts@plt>:
 8048340:	ff 25 10 d0 04 08    	jmp    DWORD PTR ds:0x804d010
 8048346:	68 08 00 00 00       	push   0x8
 804834b:	e9 d0 ff ff ff       	jmp    8048320 <_init+0x28>

08048350 <__gmon_start__@plt>:
 8048350:	ff 25 14 d0 04 08    	jmp    DWORD PTR ds:0x804d014
 8048356:	68 10 00 00 00       	push   0x10
 804835b:	e9 c0 ff ff ff       	jmp    8048320 <_init+0x28>

08048360 <__libc_start_main@plt>:
 8048360:	ff 25 18 d0 04 08    	jmp    DWORD PTR ds:0x804d018
 8048366:	68 18 00 00 00       	push   0x18
 804836b:	e9 b0 ff ff ff       	jmp    8048320 <_init+0x28>

Disassembly of section .text:

08048370 <_start>:
 8048370:	31 ed                	xor    ebp,ebp
 8048372:	5e                   	pop    esi
 8048373:	89 e1                	mov    ecx,esp
 8048375:	83 e4 f0             	and    esp,0xfffffff0
 8048378:	50                   	push   eax
 8048379:	54                   	push   esp
 804837a:	52                   	push   edx
 804837b:	68 90 8f 04 08       	push   0x8048f90
 8048380:	68 20 8f 04 08       	push   0x8048f20
 8048385:	51                   	push   ecx
 8048386:	56                   	push   esi
 8048387:	68 f2 8e 04 08       	push   0x8048ef2
 804838c:	e8 cf ff ff ff       	call   8048360 <__libc_start_main@plt>
 8048391:	f4                   	hlt    
 8048392:	66 90                	xchg   ax,ax
 8048394:	66 90                	xchg   ax,ax
 8048396:	66 90                	xchg   ax,ax
 8048398:	66 90                	xchg   ax,ax
 804839a:	66 90                	xchg   ax,ax
 804839c:	66 90                	xchg   ax,ax
 804839e:	66 90                	xchg   ax,ax

080483a0 <__x86.get_pc_thunk.bx>:
 80483a0:	8b 1c 24             	mov    ebx,DWORD PTR [esp]
 80483a3:	c3                   	ret    
 80483a4:	66 90                	xchg   ax,ax
 80483a6:	66 90                	xchg   ax,ax
 80483a8:	66 90                	xchg   ax,ax
 80483aa:	66 90                	xchg   ax,ax
 80483ac:	66 90                	xchg   ax,ax
 80483ae:	66 90                	xchg   ax,ax

080483b0 <deregister_tm_clones>:
 80483b0:	b8 27 d0 04 08       	mov    eax,0x804d027
 80483b5:	2d 24 d0 04 08       	sub    eax,0x804d024
 80483ba:	83 f8 06             	cmp    eax,0x6
 80483bd:	77 01                	ja     80483c0 <deregister_tm_clones+0x10>
 80483bf:	c3                   	ret    
 80483c0:	b8 00 00 00 00       	mov    eax,0x0
 80483c5:	85 c0                	test   eax,eax
 80483c7:	74 f6                	je     80483bf <deregister_tm_clones+0xf>
 80483c9:	55                   	push   ebp
 80483ca:	89 e5                	mov    ebp,esp
 80483cc:	83 ec 18             	sub    esp,0x18
 80483cf:	c7 04 24 24 d0 04 08 	mov    DWORD PTR [esp],0x804d024
 80483d6:	ff d0                	call   eax
 80483d8:	c9                   	leave  
 80483d9:	c3                   	ret    
 80483da:	8d b6 00 00 00 00    	lea    esi,[esi+0x0]

080483e0 <register_tm_clones>:
 80483e0:	b8 24 d0 04 08       	mov    eax,0x804d024
 80483e5:	2d 24 d0 04 08       	sub    eax,0x804d024
 80483ea:	c1 f8 02             	sar    eax,0x2
 80483ed:	89 c2                	mov    edx,eax
 80483ef:	c1 ea 1f             	shr    edx,0x1f
 80483f2:	01 d0                	add    eax,edx
 80483f4:	d1 f8                	sar    eax,1
 80483f6:	75 01                	jne    80483f9 <register_tm_clones+0x19>
 80483f8:	c3                   	ret    
 80483f9:	ba 00 00 00 00       	mov    edx,0x0
 80483fe:	85 d2                	test   edx,edx
 8048400:	74 f6                	je     80483f8 <register_tm_clones+0x18>
 8048402:	55                   	push   ebp
 8048403:	89 e5                	mov    ebp,esp
 8048405:	83 ec 18             	sub    esp,0x18
 8048408:	89 44 24 04          	mov    DWORD PTR [esp+0x4],eax
 804840c:	c7 04 24 24 d0 04 08 	mov    DWORD PTR [esp],0x804d024
 8048413:	ff d2                	call   edx
 8048415:	c9                   	leave  
 8048416:	c3                   	ret    
 8048417:	89 f6                	mov    esi,esi
 8048419:	8d bc 27 00 00 00 00 	lea    edi,[edi+eiz*1+0x0]

08048420 <__do_global_dtors_aux>:
 8048420:	80 3d 24 d0 04 08 00 	cmp    BYTE PTR ds:0x804d024,0x0
 8048427:	75 13                	jne    804843c <__do_global_dtors_aux+0x1c>
 8048429:	55                   	push   ebp
 804842a:	89 e5                	mov    ebp,esp
 804842c:	83 ec 08             	sub    esp,0x8
 804842f:	e8 7c ff ff ff       	call   80483b0 <deregister_tm_clones>
 8048434:	c6 05 24 d0 04 08 01 	mov    BYTE PTR ds:0x804d024,0x1
 804843b:	c9                   	leave  
 804843c:	f3 c3                	repz ret 
 804843e:	66 90                	xchg   ax,ax

08048440 <frame_dummy>:
 8048440:	a1 10 cf 04 08       	mov    eax,ds:0x804cf10
 8048445:	85 c0                	test   eax,eax
 8048447:	74 1f                	je     8048468 <frame_dummy+0x28>
 8048449:	b8 00 00 00 00       	mov    eax,0x0
 804844e:	85 c0                	test   eax,eax
 8048450:	74 16                	je     8048468 <frame_dummy+0x28>
 8048452:	55                   	push   ebp
 8048453:	89 e5                	mov    ebp,esp
 8048455:	83 ec 18             	sub    esp,0x18
 8048458:	c7 04 24 10 cf 04 08 	mov    DWORD PTR [esp],0x804cf10
 804845f:	ff d0                	call   eax
 8048461:	c9                   	leave  
 8048462:	e9 79 ff ff ff       	jmp    80483e0 <register_tm_clones>
 8048467:	90                   	nop
 8048468:	e9 73 ff ff ff       	jmp    80483e0 <register_tm_clones>

0804846d <thank_you_0>:
 804846d:	55                   	push   ebp
 804846e:	89 e5                	mov    ebp,esp
 8048470:	b8 00 00 00 00       	mov    eax,0x0
 8048475:	5d                   	pop    ebp
 8048476:	c3                   	ret    

08048477 <thank_you_1>:
 8048477:	55                   	push   ebp
 8048478:	89 e5                	mov    ebp,esp
 804847a:	b8 01 00 00 00       	mov    eax,0x1
 804847f:	5d                   	pop    ebp
 8048480:	c3                   	ret    

08048481 <thank_you_2>:
 8048481:	55                   	push   ebp
 8048482:	89 e5                	mov    ebp,esp
 8048484:	b8 02 00 00 00       	mov    eax,0x2
 8048489:	5d                   	pop    ebp
 804848a:	c3                   	ret    

0804848b <thank_you_3>:
 804848b:	55                   	push   ebp
 804848c:	89 e5                	mov    ebp,esp
 804848e:	b8 03 00 00 00       	mov    eax,0x3
 8048493:	5d                   	pop    ebp
 8048494:	c3                   	ret    

08048495 <thank_you_4>:
 8048495:	55                   	push   ebp
 8048496:	89 e5                	mov    ebp,esp
 8048498:	b8 04 00 00 00       	mov    eax,0x4
 804849d:	5d                   	pop    ebp
 804849e:	c3                   	ret    

0804849f <thank_you_5>:
 804849f:	55                   	push   ebp
 80484a0:	89 e5                	mov    ebp,esp
 80484a2:	b8 05 00 00 00       	mov    eax,0x5
 80484a7:	5d                   	pop    ebp
 80484a8:	c3                   	ret    

080484a9 <thank_you_6>:
 80484a9:	55                   	push   ebp
 80484aa:	89 e5                	mov    ebp,esp
 80484ac:	b8 06 00 00 00       	mov    eax,0x6
 80484b1:	5d                   	pop    ebp
 80484b2:	c3                   	ret    

080484b3 <thank_you_7>:
 80484b3:	55                   	push   ebp
 80484b4:	89 e5                	mov    ebp,esp
 80484b6:	b8 07 00 00 00       	mov    eax,0x7
 80484bb:	5d                   	pop    ebp
 80484bc:	c3                   	ret    

080484bd <thank_you_8>:
 80484bd:	55                   	push   ebp
 80484be:	89 e5                	mov    ebp,esp
 80484c0:	b8 08 00 00 00       	mov    eax,0x8
 80484c5:	5d                   	pop    ebp
 80484c6:	c3                   	ret    

080484c7 <thank_you_9>:
 80484c7:	55                   	push   ebp
 80484c8:	89 e5                	mov    ebp,esp
 80484ca:	b8 09 00 00 00       	mov    eax,0x9
 80484cf:	5d                   	pop    ebp
 80484d0:	c3                   	ret    

080484d1 <thank_you_10>:
 80484d1:	55                   	push   ebp
 80484d2:	89 e5                	mov    ebp,esp
 80484d4:	b8 0a 00 00 00       	mov    eax,0xa
 80484d9:	5d                   	pop    ebp
 80484da:	c3                   	ret    

080484db <thank_you_11>:
 80484db:	55                   	push   ebp
 80484dc:	89 e5                	mov    ebp,esp
 80484de:	b8 0b 00 00 00       	mov    eax,0xb
 80484e3:	5d                   	pop    ebp
 80484e4:	c3                   	ret    

080484e5 <thank_you_12>:
 80484e5:	55                   	push   ebp
 80484e6:	89 e5                	mov    ebp,esp
 80484e8:	b8 0c 00 00 00       	mov    eax,0xc
 80484ed:	5d                   	pop    ebp
 80484ee:	c3                   	ret    

080484ef <thank_you_13>:
 80484ef:	55                   	push   ebp
 80484f0:	89 e5                	mov    ebp,esp
 80484f2:	b8 0d 00 00 00       	mov    eax,0xd
 80484f7:	5d                   	pop    ebp
 80484f8:	c3                   	ret    

080484f9 <thank_you_14>:
 80484f9:	55                   	push   ebp
 80484fa:	89 e5                	mov    ebp,esp
 80484fc:	b8 0e 00 00 00       	mov    eax,0xe
 8048501:	5d                   	pop    ebp
 8048502:	c3                   	ret    

08048503 <thank_you_15>:
 8048503:	55                   	push   ebp
 8048504:	89 e5                	mov    ebp,esp
 8048506:	b8 0f 00 00 00       	mov    eax,0xf
 804850b:	5d                   	pop    ebp
 804850c:	c3                   	ret    

0804850d <thank_you_16>:
 804850d:	55                   	push   ebp
 804850e:	89 e5                	mov    ebp,esp
 8048510:	b8 10 00 00 00       	mov    eax,0x10
 8048515:	5d                   	pop    ebp
 8048516:	c3                   	ret    

08048517 <thank_you_17>:
 8048517:	55                   	push   ebp
 8048518:	89 e5                	mov    ebp,esp
 804851a:	b8 11 00 00 00       	mov    eax,0x11
 804851f:	5d                   	pop    ebp
 8048520:	c3                   	ret    

08048521 <thank_you_18>:
 8048521:	55                   	push   ebp
 8048522:	89 e5                	mov    ebp,esp
 8048524:	b8 6f 00 00 00       	mov    eax,0x6f
 8048529:	5d                   	pop    ebp
 804852a:	c3                   	ret    

0804852b <thank_you_19>:
 804852b:	55                   	push   ebp
 804852c:	89 e5                	mov    ebp,esp
 804852e:	b8 13 00 00 00       	mov    eax,0x13
 8048533:	5d                   	pop    ebp
 8048534:	c3                   	ret    

08048535 <thank_you_20>:
 8048535:	55                   	push   ebp
 8048536:	89 e5                	mov    ebp,esp
 8048538:	b8 14 00 00 00       	mov    eax,0x14
 804853d:	5d                   	pop    ebp
 804853e:	c3                   	ret    

0804853f <thank_you_21>:
 804853f:	55                   	push   ebp
 8048540:	89 e5                	mov    ebp,esp
 8048542:	b8 15 00 00 00       	mov    eax,0x15
 8048547:	5d                   	pop    ebp
 8048548:	c3                   	ret    

08048549 <thank_you_22>:
 8048549:	55                   	push   ebp
 804854a:	89 e5                	mov    ebp,esp
 804854c:	b8 16 00 00 00       	mov    eax,0x16
 8048551:	5d                   	pop    ebp
 8048552:	c3                   	ret    

08048553 <thank_you_23>:
 8048553:	55                   	push   ebp
 8048554:	89 e5                	mov    ebp,esp
 8048556:	b8 17 00 00 00       	mov    eax,0x17
 804855b:	5d                   	pop    ebp
 804855c:	c3                   	ret    

0804855d <thank_you_24>:
 804855d:	55                   	push   ebp
 804855e:	89 e5                	mov    ebp,esp
 8048560:	b8 18 00 00 00       	mov    eax,0x18
 8048565:	5d                   	pop    ebp
 8048566:	c3                   	ret    

08048567 <thank_you_25>:
 8048567:	55                   	push   ebp
 8048568:	89 e5                	mov    ebp,esp
 804856a:	b8 19 00 00 00       	mov    eax,0x19
 804856f:	5d                   	pop    ebp
 8048570:	c3                   	ret    

08048571 <thank_you_26>:
 8048571:	55                   	push   ebp
 8048572:	89 e5                	mov    ebp,esp
 8048574:	b8 1a 00 00 00       	mov    eax,0x1a
 8048579:	5d                   	pop    ebp
 804857a:	c3                   	ret    

0804857b <thank_you_27>:
 804857b:	55                   	push   ebp
 804857c:	89 e5                	mov    ebp,esp
 804857e:	b8 1b 00 00 00       	mov    eax,0x1b
 8048583:	5d                   	pop    ebp
 8048584:	c3                   	ret    

08048585 <thank_you_28>:
 8048585:	55                   	push   ebp
 8048586:	89 e5                	mov    ebp,esp
 8048588:	b8 1c 00 00 00       	mov    eax,0x1c
 804858d:	5d                   	pop    ebp
 804858e:	c3                   	ret    

0804858f <thank_you_29>:
 804858f:	55                   	push   ebp
 8048590:	89 e5                	mov    ebp,esp
 8048592:	b8 1d 00 00 00       	mov    eax,0x1d
 8048597:	5d                   	pop    ebp
 8048598:	c3                   	ret    

08048599 <thank_you_30>:
 8048599:	55                   	push   ebp
 804859a:	89 e5                	mov    ebp,esp
 804859c:	b8 1e 00 00 00       	mov    eax,0x1e
 80485a1:	5d                   	pop    ebp
 80485a2:	c3                   	ret    

080485a3 <thank_you_31>:
 80485a3:	55                   	push   ebp
 80485a4:	89 e5                	mov    ebp,esp
 80485a6:	b8 1f 00 00 00       	mov    eax,0x1f
 80485ab:	5d                   	pop    ebp
 80485ac:	c3                   	ret    

080485ad <thank_you_32>:
 80485ad:	55                   	push   ebp
 80485ae:	89 e5                	mov    ebp,esp
 80485b0:	b8 20 00 00 00       	mov    eax,0x20
 80485b5:	5d                   	pop    ebp
 80485b6:	c3                   	ret    

080485b7 <thank_you_33>:
 80485b7:	55                   	push   ebp
 80485b8:	89 e5                	mov    ebp,esp
 80485ba:	b8 21 00 00 00       	mov    eax,0x21
 80485bf:	5d                   	pop    ebp
 80485c0:	c3                   	ret    

080485c1 <thank_you_34>:
 80485c1:	55                   	push   ebp
 80485c2:	89 e5                	mov    ebp,esp
 80485c4:	b8 22 00 00 00       	mov    eax,0x22
 80485c9:	5d                   	pop    ebp
 80485ca:	c3                   	ret    

080485cb <thank_you_35>:
 80485cb:	55                   	push   ebp
 80485cc:	89 e5                	mov    ebp,esp
 80485ce:	b8 23 00 00 00       	mov    eax,0x23
 80485d3:	5d                   	pop    ebp
 80485d4:	c3                   	ret    

080485d5 <thank_you_36>:
 80485d5:	55                   	push   ebp
 80485d6:	89 e5                	mov    ebp,esp
 80485d8:	b8 24 00 00 00       	mov    eax,0x24
 80485dd:	5d                   	pop    ebp
 80485de:	c3                   	ret    

080485df <thank_you_37>:
 80485df:	55                   	push   ebp
 80485e0:	89 e5                	mov    ebp,esp
 80485e2:	b8 25 00 00 00       	mov    eax,0x25
 80485e7:	5d                   	pop    ebp
 80485e8:	c3                   	ret    

080485e9 <thank_you_38>:
 80485e9:	55                   	push   ebp
 80485ea:	89 e5                	mov    ebp,esp
 80485ec:	b8 26 00 00 00       	mov    eax,0x26
 80485f1:	5d                   	pop    ebp
 80485f2:	c3                   	ret    

080485f3 <thank_you_39>:
 80485f3:	55                   	push   ebp
 80485f4:	89 e5                	mov    ebp,esp
 80485f6:	b8 27 00 00 00       	mov    eax,0x27
 80485fb:	5d                   	pop    ebp
 80485fc:	c3                   	ret    

080485fd <thank_you_40>:
 80485fd:	55                   	push   ebp
 80485fe:	89 e5                	mov    ebp,esp
 8048600:	b8 28 00 00 00       	mov    eax,0x28
 8048605:	5d                   	pop    ebp
 8048606:	c3                   	ret    

08048607 <thank_you_41>:
 8048607:	55                   	push   ebp
 8048608:	89 e5                	mov    ebp,esp
 804860a:	b8 29 00 00 00       	mov    eax,0x29
 804860f:	5d                   	pop    ebp
 8048610:	c3                   	ret    

08048611 <thank_you_42>:
 8048611:	55                   	push   ebp
 8048612:	89 e5                	mov    ebp,esp
 8048614:	b8 2a 00 00 00       	mov    eax,0x2a
 8048619:	5d                   	pop    ebp
 804861a:	c3                   	ret    

0804861b <thank_you_43>:
 804861b:	55                   	push   ebp
 804861c:	89 e5                	mov    ebp,esp
 804861e:	b8 2b 00 00 00       	mov    eax,0x2b
 8048623:	5d                   	pop    ebp
 8048624:	c3                   	ret    

08048625 <thank_you_44>:
 8048625:	55                   	push   ebp
 8048626:	89 e5                	mov    ebp,esp
 8048628:	b8 2c 00 00 00       	mov    eax,0x2c
 804862d:	5d                   	pop    ebp
 804862e:	c3                   	ret    

0804862f <thank_you_45>:
 804862f:	55                   	push   ebp
 8048630:	89 e5                	mov    ebp,esp
 8048632:	b8 2d 00 00 00       	mov    eax,0x2d
 8048637:	5d                   	pop    ebp
 8048638:	c3                   	ret    

08048639 <thank_you_46>:
 8048639:	55                   	push   ebp
 804863a:	89 e5                	mov    ebp,esp
 804863c:	b8 2e 00 00 00       	mov    eax,0x2e
 8048641:	5d                   	pop    ebp
 8048642:	c3                   	ret    

08048643 <thank_you_47>:
 8048643:	55                   	push   ebp
 8048644:	89 e5                	mov    ebp,esp
 8048646:	b8 2f 00 00 00       	mov    eax,0x2f
 804864b:	5d                   	pop    ebp
 804864c:	c3                   	ret    

0804864d <thank_you_48>:
 804864d:	55                   	push   ebp
 804864e:	89 e5                	mov    ebp,esp
 8048650:	b8 30 00 00 00       	mov    eax,0x30
 8048655:	5d                   	pop    ebp
 8048656:	c3                   	ret    

08048657 <thank_you_49>:
 8048657:	55                   	push   ebp
 8048658:	89 e5                	mov    ebp,esp
 804865a:	b8 31 00 00 00       	mov    eax,0x31
 804865f:	5d                   	pop    ebp
 8048660:	c3                   	ret    

08048661 <thank_you_50>:
 8048661:	55                   	push   ebp
 8048662:	89 e5                	mov    ebp,esp
 8048664:	b8 32 00 00 00       	mov    eax,0x32
 8048669:	5d                   	pop    ebp
 804866a:	c3                   	ret    

0804866b <thank_you_51>:
 804866b:	55                   	push   ebp
 804866c:	89 e5                	mov    ebp,esp
 804866e:	b8 33 00 00 00       	mov    eax,0x33
 8048673:	5d                   	pop    ebp
 8048674:	c3                   	ret    

08048675 <thank_you_52>:
 8048675:	55                   	push   ebp
 8048676:	89 e5                	mov    ebp,esp
 8048678:	b8 34 00 00 00       	mov    eax,0x34
 804867d:	5d                   	pop    ebp
 804867e:	c3                   	ret    

0804867f <thank_you_53>:
 804867f:	55                   	push   ebp
 8048680:	89 e5                	mov    ebp,esp
 8048682:	b8 35 00 00 00       	mov    eax,0x35
 8048687:	5d                   	pop    ebp
 8048688:	c3                   	ret    

08048689 <thank_you_54>:
 8048689:	55                   	push   ebp
 804868a:	89 e5                	mov    ebp,esp
 804868c:	b8 36 00 00 00       	mov    eax,0x36
 8048691:	5d                   	pop    ebp
 8048692:	c3                   	ret    

08048693 <thank_you_55>:
 8048693:	55                   	push   ebp
 8048694:	89 e5                	mov    ebp,esp
 8048696:	b8 37 00 00 00       	mov    eax,0x37
 804869b:	5d                   	pop    ebp
 804869c:	c3                   	ret    

0804869d <thank_you_56>:
 804869d:	55                   	push   ebp
 804869e:	89 e5                	mov    ebp,esp
 80486a0:	b8 38 00 00 00       	mov    eax,0x38
 80486a5:	5d                   	pop    ebp
 80486a6:	c3                   	ret    

080486a7 <thank_you_57>:
 80486a7:	55                   	push   ebp
 80486a8:	89 e5                	mov    ebp,esp
 80486aa:	b8 39 00 00 00       	mov    eax,0x39
 80486af:	5d                   	pop    ebp
 80486b0:	c3                   	ret    

080486b1 <thank_you_58>:
 80486b1:	55                   	push   ebp
 80486b2:	89 e5                	mov    ebp,esp
 80486b4:	b8 3a 00 00 00       	mov    eax,0x3a
 80486b9:	5d                   	pop    ebp
 80486ba:	c3                   	ret    

080486bb <thank_you_59>:
 80486bb:	55                   	push   ebp
 80486bc:	89 e5                	mov    ebp,esp
 80486be:	b8 3b 00 00 00       	mov    eax,0x3b
 80486c3:	5d                   	pop    ebp
 80486c4:	c3                   	ret    

080486c5 <thank_you_60>:
 80486c5:	55                   	push   ebp
 80486c6:	89 e5                	mov    ebp,esp
 80486c8:	b8 3c 00 00 00       	mov    eax,0x3c
 80486cd:	5d                   	pop    ebp
 80486ce:	c3                   	ret    

080486cf <thank_you_61>:
 80486cf:	55                   	push   ebp
 80486d0:	89 e5                	mov    ebp,esp
 80486d2:	b8 3d 00 00 00       	mov    eax,0x3d
 80486d7:	5d                   	pop    ebp
 80486d8:	c3                   	ret    

080486d9 <thank_you_62>:
 80486d9:	55                   	push   ebp
 80486da:	89 e5                	mov    ebp,esp
 80486dc:	b8 3e 00 00 00       	mov    eax,0x3e
 80486e1:	5d                   	pop    ebp
 80486e2:	c3                   	ret    

080486e3 <thank_you_63>:
 80486e3:	55                   	push   ebp
 80486e4:	89 e5                	mov    ebp,esp
 80486e6:	b8 3f 00 00 00       	mov    eax,0x3f
 80486eb:	5d                   	pop    ebp
 80486ec:	c3                   	ret    

080486ed <thank_you_64>:
 80486ed:	55                   	push   ebp
 80486ee:	89 e5                	mov    ebp,esp
 80486f0:	b8 40 00 00 00       	mov    eax,0x40
 80486f5:	5d                   	pop    ebp
 80486f6:	c3                   	ret    

080486f7 <thank_you_65>:
 80486f7:	55                   	push   ebp
 80486f8:	89 e5                	mov    ebp,esp
 80486fa:	b8 41 00 00 00       	mov    eax,0x41
 80486ff:	5d                   	pop    ebp
 8048700:	c3                   	ret    

08048701 <thank_you_66>:
 8048701:	55                   	push   ebp
 8048702:	89 e5                	mov    ebp,esp
 8048704:	b8 42 00 00 00       	mov    eax,0x42
 8048709:	5d                   	pop    ebp
 804870a:	c3                   	ret    

0804870b <thank_you_67>:
 804870b:	55                   	push   ebp
 804870c:	89 e5                	mov    ebp,esp
 804870e:	b8 43 00 00 00       	mov    eax,0x43
 8048713:	5d                   	pop    ebp
 8048714:	c3                   	ret    

08048715 <thank_you_68>:
 8048715:	55                   	push   ebp
 8048716:	89 e5                	mov    ebp,esp
 8048718:	b8 44 00 00 00       	mov    eax,0x44
 804871d:	5d                   	pop    ebp
 804871e:	c3                   	ret    

0804871f <thank_you_69>:
 804871f:	55                   	push   ebp
 8048720:	89 e5                	mov    ebp,esp
 8048722:	b8 45 00 00 00       	mov    eax,0x45
 8048727:	5d                   	pop    ebp
 8048728:	c3                   	ret    

08048729 <thank_you_70>:
 8048729:	55                   	push   ebp
 804872a:	89 e5                	mov    ebp,esp
 804872c:	b8 46 00 00 00       	mov    eax,0x46
 8048731:	5d                   	pop    ebp
 8048732:	c3                   	ret    

08048733 <thank_you_71>:
 8048733:	55                   	push   ebp
 8048734:	89 e5                	mov    ebp,esp
 8048736:	b8 47 00 00 00       	mov    eax,0x47
 804873b:	5d                   	pop    ebp
 804873c:	c3                   	ret    

0804873d <thank_you_72>:
 804873d:	55                   	push   ebp
 804873e:	89 e5                	mov    ebp,esp
 8048740:	b8 48 00 00 00       	mov    eax,0x48
 8048745:	5d                   	pop    ebp
 8048746:	c3                   	ret    

08048747 <thank_you_73>:
 8048747:	55                   	push   ebp
 8048748:	89 e5                	mov    ebp,esp
 804874a:	b8 49 00 00 00       	mov    eax,0x49
 804874f:	5d                   	pop    ebp
 8048750:	c3                   	ret    

08048751 <thank_you_74>:
 8048751:	55                   	push   ebp
 8048752:	89 e5                	mov    ebp,esp
 8048754:	b8 4a 00 00 00       	mov    eax,0x4a
 8048759:	5d                   	pop    ebp
 804875a:	c3                   	ret    

0804875b <thank_you_75>:
 804875b:	55                   	push   ebp
 804875c:	89 e5                	mov    ebp,esp
 804875e:	b8 4b 00 00 00       	mov    eax,0x4b
 8048763:	5d                   	pop    ebp
 8048764:	c3                   	ret    

08048765 <thank_you_76>:
 8048765:	55                   	push   ebp
 8048766:	89 e5                	mov    ebp,esp
 8048768:	b8 4c 00 00 00       	mov    eax,0x4c
 804876d:	5d                   	pop    ebp
 804876e:	c3                   	ret    

0804876f <thank_you_77>:
 804876f:	55                   	push   ebp
 8048770:	89 e5                	mov    ebp,esp
 8048772:	b8 4d 00 00 00       	mov    eax,0x4d
 8048777:	5d                   	pop    ebp
 8048778:	c3                   	ret    

08048779 <thank_you_78>:
 8048779:	55                   	push   ebp
 804877a:	89 e5                	mov    ebp,esp
 804877c:	b8 4e 00 00 00       	mov    eax,0x4e
 8048781:	5d                   	pop    ebp
 8048782:	c3                   	ret    

08048783 <thank_you_79>:
 8048783:	55                   	push   ebp
 8048784:	89 e5                	mov    ebp,esp
 8048786:	b8 4f 00 00 00       	mov    eax,0x4f
 804878b:	5d                   	pop    ebp
 804878c:	c3                   	ret    

0804878d <thank_you_80>:
 804878d:	55                   	push   ebp
 804878e:	89 e5                	mov    ebp,esp
 8048790:	b8 50 00 00 00       	mov    eax,0x50
 8048795:	5d                   	pop    ebp
 8048796:	c3                   	ret    

08048797 <thank_you_81>:
 8048797:	55                   	push   ebp
 8048798:	89 e5                	mov    ebp,esp
 804879a:	b8 51 00 00 00       	mov    eax,0x51
 804879f:	5d                   	pop    ebp
 80487a0:	c3                   	ret    

080487a1 <thank_you_82>:
 80487a1:	55                   	push   ebp
 80487a2:	89 e5                	mov    ebp,esp
 80487a4:	b8 52 00 00 00       	mov    eax,0x52
 80487a9:	5d                   	pop    ebp
 80487aa:	c3                   	ret    

080487ab <thank_you_83>:
 80487ab:	55                   	push   ebp
 80487ac:	89 e5                	mov    ebp,esp
 80487ae:	b8 53 00 00 00       	mov    eax,0x53
 80487b3:	5d                   	pop    ebp
 80487b4:	c3                   	ret    

080487b5 <thank_you_84>:
 80487b5:	55                   	push   ebp
 80487b6:	89 e5                	mov    ebp,esp
 80487b8:	b8 54 00 00 00       	mov    eax,0x54
 80487bd:	5d                   	pop    ebp
 80487be:	c3                   	ret    

080487bf <thank_you_85>:
 80487bf:	55                   	push   ebp
 80487c0:	89 e5                	mov    ebp,esp
 80487c2:	b8 55 00 00 00       	mov    eax,0x55
 80487c7:	5d                   	pop    ebp
 80487c8:	c3                   	ret    

080487c9 <thank_you_86>:
 80487c9:	55                   	push   ebp
 80487ca:	89 e5                	mov    ebp,esp
 80487cc:	b8 56 00 00 00       	mov    eax,0x56
 80487d1:	5d                   	pop    ebp
 80487d2:	c3                   	ret    

080487d3 <thank_you_87>:
 80487d3:	55                   	push   ebp
 80487d4:	89 e5                	mov    ebp,esp
 80487d6:	b8 57 00 00 00       	mov    eax,0x57
 80487db:	5d                   	pop    ebp
 80487dc:	c3                   	ret    

080487dd <thank_you_88>:
 80487dd:	55                   	push   ebp
 80487de:	89 e5                	mov    ebp,esp
 80487e0:	b8 58 00 00 00       	mov    eax,0x58
 80487e5:	5d                   	pop    ebp
 80487e6:	c3                   	ret    

080487e7 <thank_you_89>:
 80487e7:	55                   	push   ebp
 80487e8:	89 e5                	mov    ebp,esp
 80487ea:	b8 59 00 00 00       	mov    eax,0x59
 80487ef:	5d                   	pop    ebp
 80487f0:	c3                   	ret    

080487f1 <thank_you_90>:
 80487f1:	55                   	push   ebp
 80487f2:	89 e5                	mov    ebp,esp
 80487f4:	b8 5a 00 00 00       	mov    eax,0x5a
 80487f9:	5d                   	pop    ebp
 80487fa:	c3                   	ret    

080487fb <thank_you_91>:
 80487fb:	55                   	push   ebp
 80487fc:	89 e5                	mov    ebp,esp
 80487fe:	b8 5b 00 00 00       	mov    eax,0x5b
 8048803:	5d                   	pop    ebp
 8048804:	c3                   	ret    

08048805 <thank_you_92>:
 8048805:	55                   	push   ebp
 8048806:	89 e5                	mov    ebp,esp
 8048808:	b8 5c 00 00 00       	mov    eax,0x5c
 804880d:	5d                   	pop    ebp
 804880e:	c3                   	ret    

0804880f <thank_you_93>:
 804880f:	55                   	push   ebp
 8048810:	89 e5                	mov    ebp,esp
 8048812:	b8 5d 00 00 00       	mov    eax,0x5d
 8048817:	5d                   	pop    ebp
 8048818:	c3                   	ret    

08048819 <thank_you_94>:
 8048819:	55                   	push   ebp
 804881a:	89 e5                	mov    ebp,esp
 804881c:	b8 5e 00 00 00       	mov    eax,0x5e
 8048821:	5d                   	pop    ebp
 8048822:	c3                   	ret    

08048823 <thank_you_95>:
 8048823:	55                   	push   ebp
 8048824:	89 e5                	mov    ebp,esp
 8048826:	b8 5f 00 00 00       	mov    eax,0x5f
 804882b:	5d                   	pop    ebp
 804882c:	c3                   	ret    

0804882d <thank_you_96>:
 804882d:	55                   	push   ebp
 804882e:	89 e5                	mov    ebp,esp
 8048830:	b8 60 00 00 00       	mov    eax,0x60
 8048835:	5d                   	pop    ebp
 8048836:	c3                   	ret    

08048837 <thank_you_97>:
 8048837:	55                   	push   ebp
 8048838:	89 e5                	mov    ebp,esp
 804883a:	b8 61 00 00 00       	mov    eax,0x61
 804883f:	5d                   	pop    ebp
 8048840:	c3                   	ret    

08048841 <thank_you_98>:
 8048841:	55                   	push   ebp
 8048842:	89 e5                	mov    ebp,esp
 8048844:	b8 62 00 00 00       	mov    eax,0x62
 8048849:	5d                   	pop    ebp
 804884a:	c3                   	ret    

0804884b <thank_you_99>:
 804884b:	55                   	push   ebp
 804884c:	89 e5                	mov    ebp,esp
 804884e:	b8 63 00 00 00       	mov    eax,0x63
 8048853:	5d                   	pop    ebp
 8048854:	c3                   	ret    

08048855 <thank_you_100>:
 8048855:	55                   	push   ebp
 8048856:	89 e5                	mov    ebp,esp
 8048858:	b8 64 00 00 00       	mov    eax,0x64
 804885d:	5d                   	pop    ebp
 804885e:	c3                   	ret    

0804885f <thank_you_101>:
 804885f:	55                   	push   ebp
 8048860:	89 e5                	mov    ebp,esp
 8048862:	b8 65 00 00 00       	mov    eax,0x65
 8048867:	5d                   	pop    ebp
 8048868:	c3                   	ret    

08048869 <thank_you_102>:
 8048869:	55                   	push   ebp
 804886a:	89 e5                	mov    ebp,esp
 804886c:	b8 6c 00 00 00       	mov    eax,0x6c
 8048871:	5d                   	pop    ebp
 8048872:	c3                   	ret    

08048873 <thank_you_103>:
 8048873:	55                   	push   ebp
 8048874:	89 e5                	mov    ebp,esp
 8048876:	b8 67 00 00 00       	mov    eax,0x67
 804887b:	5d                   	pop    ebp
 804887c:	c3                   	ret    

0804887d <thank_you_104>:
 804887d:	55                   	push   ebp
 804887e:	89 e5                	mov    ebp,esp
 8048880:	b8 68 00 00 00       	mov    eax,0x68
 8048885:	5d                   	pop    ebp
 8048886:	c3                   	ret    

08048887 <thank_you_105>:
 8048887:	55                   	push   ebp
 8048888:	89 e5                	mov    ebp,esp
 804888a:	b8 69 00 00 00       	mov    eax,0x69
 804888f:	5d                   	pop    ebp
 8048890:	c3                   	ret    

08048891 <thank_you_106>:
 8048891:	55                   	push   ebp
 8048892:	89 e5                	mov    ebp,esp
 8048894:	b8 6a 00 00 00       	mov    eax,0x6a
 8048899:	5d                   	pop    ebp
 804889a:	c3                   	ret    

0804889b <thank_you_107>:
 804889b:	55                   	push   ebp
 804889c:	89 e5                	mov    ebp,esp
 804889e:	b8 6b 00 00 00       	mov    eax,0x6b
 80488a3:	5d                   	pop    ebp
 80488a4:	c3                   	ret    

080488a5 <thank_you_108>:
 80488a5:	55                   	push   ebp
 80488a6:	89 e5                	mov    ebp,esp
 80488a8:	b8 66 00 00 00       	mov    eax,0x66
 80488ad:	5d                   	pop    ebp
 80488ae:	c3                   	ret    

080488af <thank_you_109>:
 80488af:	55                   	push   ebp
 80488b0:	89 e5                	mov    ebp,esp
 80488b2:	b8 6d 00 00 00       	mov    eax,0x6d
 80488b7:	5d                   	pop    ebp
 80488b8:	c3                   	ret    

080488b9 <thank_you_110>:
 80488b9:	55                   	push   ebp
 80488ba:	89 e5                	mov    ebp,esp
 80488bc:	b8 6e 00 00 00       	mov    eax,0x6e
 80488c1:	5d                   	pop    ebp
 80488c2:	c3                   	ret    

080488c3 <thank_you_111>:
 80488c3:	55                   	push   ebp
 80488c4:	89 e5                	mov    ebp,esp
 80488c6:	b8 12 00 00 00       	mov    eax,0x12
 80488cb:	5d                   	pop    ebp
 80488cc:	c3                   	ret    

080488cd <thank_you_112>:
 80488cd:	55                   	push   ebp
 80488ce:	89 e5                	mov    ebp,esp
 80488d0:	b8 70 00 00 00       	mov    eax,0x70
 80488d5:	5d                   	pop    ebp
 80488d6:	c3                   	ret    

080488d7 <thank_you_113>:
 80488d7:	55                   	push   ebp
 80488d8:	89 e5                	mov    ebp,esp
 80488da:	b8 71 00 00 00       	mov    eax,0x71
 80488df:	5d                   	pop    ebp
 80488e0:	c3                   	ret    

080488e1 <thank_you_114>:
 80488e1:	55                   	push   ebp
 80488e2:	89 e5                	mov    ebp,esp
 80488e4:	b8 72 00 00 00       	mov    eax,0x72
 80488e9:	5d                   	pop    ebp
 80488ea:	c3                   	ret    

080488eb <thank_you_115>:
 80488eb:	55                   	push   ebp
 80488ec:	89 e5                	mov    ebp,esp
 80488ee:	b8 73 00 00 00       	mov    eax,0x73
 80488f3:	5d                   	pop    ebp
 80488f4:	c3                   	ret    

080488f5 <thank_you_116>:
 80488f5:	55                   	push   ebp
 80488f6:	89 e5                	mov    ebp,esp
 80488f8:	b8 74 00 00 00       	mov    eax,0x74
 80488fd:	5d                   	pop    ebp
 80488fe:	c3                   	ret    

080488ff <thank_you_117>:
 80488ff:	55                   	push   ebp
 8048900:	89 e5                	mov    ebp,esp
 8048902:	b8 75 00 00 00       	mov    eax,0x75
 8048907:	5d                   	pop    ebp
 8048908:	c3                   	ret    

08048909 <thank_you_118>:
 8048909:	55                   	push   ebp
 804890a:	89 e5                	mov    ebp,esp
 804890c:	b8 76 00 00 00       	mov    eax,0x76
 8048911:	5d                   	pop    ebp
 8048912:	c3                   	ret    

08048913 <thank_you_119>:
 8048913:	55                   	push   ebp
 8048914:	89 e5                	mov    ebp,esp
 8048916:	b8 77 00 00 00       	mov    eax,0x77
 804891b:	5d                   	pop    ebp
 804891c:	c3                   	ret    

0804891d <thank_you_120>:
 804891d:	55                   	push   ebp
 804891e:	89 e5                	mov    ebp,esp
 8048920:	b8 78 00 00 00       	mov    eax,0x78
 8048925:	5d                   	pop    ebp
 8048926:	c3                   	ret    

08048927 <thank_you_121>:
 8048927:	55                   	push   ebp
 8048928:	89 e5                	mov    ebp,esp
 804892a:	b8 d3 ff ff ff       	mov    eax,0xffffffd3
 804892f:	5d                   	pop    ebp
 8048930:	c3                   	ret    

08048931 <thank_you_122>:
 8048931:	55                   	push   ebp
 8048932:	89 e5                	mov    ebp,esp
 8048934:	b8 7a 00 00 00       	mov    eax,0x7a
 8048939:	5d                   	pop    ebp
 804893a:	c3                   	ret    

0804893b <thank_you_123>:
 804893b:	55                   	push   ebp
 804893c:	89 e5                	mov    ebp,esp
 804893e:	b8 7b 00 00 00       	mov    eax,0x7b
 8048943:	5d                   	pop    ebp
 8048944:	c3                   	ret    

08048945 <thank_you_124>:
 8048945:	55                   	push   ebp
 8048946:	89 e5                	mov    ebp,esp
 8048948:	b8 7c 00 00 00       	mov    eax,0x7c
 804894d:	5d                   	pop    ebp
 804894e:	c3                   	ret    

0804894f <thank_you_125>:
 804894f:	55                   	push   ebp
 8048950:	89 e5                	mov    ebp,esp
 8048952:	b8 7d 00 00 00       	mov    eax,0x7d
 8048957:	5d                   	pop    ebp
 8048958:	c3                   	ret    

08048959 <thank_you_126>:
 8048959:	55                   	push   ebp
 804895a:	89 e5                	mov    ebp,esp
 804895c:	b8 7e 00 00 00       	mov    eax,0x7e
 8048961:	5d                   	pop    ebp
 8048962:	c3                   	ret    

08048963 <thank_you_127>:
 8048963:	55                   	push   ebp
 8048964:	89 e5                	mov    ebp,esp
 8048966:	b8 7f 00 00 00       	mov    eax,0x7f
 804896b:	5d                   	pop    ebp
 804896c:	c3                   	ret    

0804896d <thank_you_128>:
 804896d:	55                   	push   ebp
 804896e:	89 e5                	mov    ebp,esp
 8048970:	b8 80 ff ff ff       	mov    eax,0xffffff80
 8048975:	5d                   	pop    ebp
 8048976:	c3                   	ret    

08048977 <thank_you_129>:
 8048977:	55                   	push   ebp
 8048978:	89 e5                	mov    ebp,esp
 804897a:	b8 81 ff ff ff       	mov    eax,0xffffff81
 804897f:	5d                   	pop    ebp
 8048980:	c3                   	ret    

08048981 <thank_you_130>:
 8048981:	55                   	push   ebp
 8048982:	89 e5                	mov    ebp,esp
 8048984:	b8 82 ff ff ff       	mov    eax,0xffffff82
 8048989:	5d                   	pop    ebp
 804898a:	c3                   	ret    

0804898b <thank_you_131>:
 804898b:	55                   	push   ebp
 804898c:	89 e5                	mov    ebp,esp
 804898e:	b8 83 ff ff ff       	mov    eax,0xffffff83
 8048993:	5d                   	pop    ebp
 8048994:	c3                   	ret    

08048995 <thank_you_132>:
 8048995:	55                   	push   ebp
 8048996:	89 e5                	mov    ebp,esp
 8048998:	b8 84 ff ff ff       	mov    eax,0xffffff84
 804899d:	5d                   	pop    ebp
 804899e:	c3                   	ret    

0804899f <thank_you_133>:
 804899f:	55                   	push   ebp
 80489a0:	89 e5                	mov    ebp,esp
 80489a2:	b8 85 ff ff ff       	mov    eax,0xffffff85
 80489a7:	5d                   	pop    ebp
 80489a8:	c3                   	ret    

080489a9 <thank_you_134>:
 80489a9:	55                   	push   ebp
 80489aa:	89 e5                	mov    ebp,esp
 80489ac:	b8 86 ff ff ff       	mov    eax,0xffffff86
 80489b1:	5d                   	pop    ebp
 80489b2:	c3                   	ret    

080489b3 <thank_you_135>:
 80489b3:	55                   	push   ebp
 80489b4:	89 e5                	mov    ebp,esp
 80489b6:	b8 87 ff ff ff       	mov    eax,0xffffff87
 80489bb:	5d                   	pop    ebp
 80489bc:	c3                   	ret    

080489bd <thank_you_136>:
 80489bd:	55                   	push   ebp
 80489be:	89 e5                	mov    ebp,esp
 80489c0:	b8 88 ff ff ff       	mov    eax,0xffffff88
 80489c5:	5d                   	pop    ebp
 80489c6:	c3                   	ret    

080489c7 <thank_you_137>:
 80489c7:	55                   	push   ebp
 80489c8:	89 e5                	mov    ebp,esp
 80489ca:	b8 89 ff ff ff       	mov    eax,0xffffff89
 80489cf:	5d                   	pop    ebp
 80489d0:	c3                   	ret    

080489d1 <thank_you_138>:
 80489d1:	55                   	push   ebp
 80489d2:	89 e5                	mov    ebp,esp
 80489d4:	b8 8a ff ff ff       	mov    eax,0xffffff8a
 80489d9:	5d                   	pop    ebp
 80489da:	c3                   	ret    

080489db <thank_you_139>:
 80489db:	55                   	push   ebp
 80489dc:	89 e5                	mov    ebp,esp
 80489de:	b8 8b ff ff ff       	mov    eax,0xffffff8b
 80489e3:	5d                   	pop    ebp
 80489e4:	c3                   	ret    

080489e5 <thank_you_140>:
 80489e5:	55                   	push   ebp
 80489e6:	89 e5                	mov    ebp,esp
 80489e8:	b8 8c ff ff ff       	mov    eax,0xffffff8c
 80489ed:	5d                   	pop    ebp
 80489ee:	c3                   	ret    

080489ef <thank_you_141>:
 80489ef:	55                   	push   ebp
 80489f0:	89 e5                	mov    ebp,esp
 80489f2:	b8 8d ff ff ff       	mov    eax,0xffffff8d
 80489f7:	5d                   	pop    ebp
 80489f8:	c3                   	ret    

080489f9 <thank_you_142>:
 80489f9:	55                   	push   ebp
 80489fa:	89 e5                	mov    ebp,esp
 80489fc:	b8 8e ff ff ff       	mov    eax,0xffffff8e
 8048a01:	5d                   	pop    ebp
 8048a02:	c3                   	ret    

08048a03 <thank_you_143>:
 8048a03:	55                   	push   ebp
 8048a04:	89 e5                	mov    ebp,esp
 8048a06:	b8 8f ff ff ff       	mov    eax,0xffffff8f
 8048a0b:	5d                   	pop    ebp
 8048a0c:	c3                   	ret    

08048a0d <thank_you_144>:
 8048a0d:	55                   	push   ebp
 8048a0e:	89 e5                	mov    ebp,esp
 8048a10:	b8 90 ff ff ff       	mov    eax,0xffffff90
 8048a15:	5d                   	pop    ebp
 8048a16:	c3                   	ret    

08048a17 <thank_you_145>:
 8048a17:	55                   	push   ebp
 8048a18:	89 e5                	mov    ebp,esp
 8048a1a:	b8 91 ff ff ff       	mov    eax,0xffffff91
 8048a1f:	5d                   	pop    ebp
 8048a20:	c3                   	ret    

08048a21 <thank_you_146>:
 8048a21:	55                   	push   ebp
 8048a22:	89 e5                	mov    ebp,esp
 8048a24:	b8 92 ff ff ff       	mov    eax,0xffffff92
 8048a29:	5d                   	pop    ebp
 8048a2a:	c3                   	ret    

08048a2b <thank_you_147>:
 8048a2b:	55                   	push   ebp
 8048a2c:	89 e5                	mov    ebp,esp
 8048a2e:	b8 93 ff ff ff       	mov    eax,0xffffff93
 8048a33:	5d                   	pop    ebp
 8048a34:	c3                   	ret    

08048a35 <thank_you_148>:
 8048a35:	55                   	push   ebp
 8048a36:	89 e5                	mov    ebp,esp
 8048a38:	b8 94 ff ff ff       	mov    eax,0xffffff94
 8048a3d:	5d                   	pop    ebp
 8048a3e:	c3                   	ret    

08048a3f <thank_you_149>:
 8048a3f:	55                   	push   ebp
 8048a40:	89 e5                	mov    ebp,esp
 8048a42:	b8 95 ff ff ff       	mov    eax,0xffffff95
 8048a47:	5d                   	pop    ebp
 8048a48:	c3                   	ret    

08048a49 <thank_you_150>:
 8048a49:	55                   	push   ebp
 8048a4a:	89 e5                	mov    ebp,esp
 8048a4c:	b8 96 ff ff ff       	mov    eax,0xffffff96
 8048a51:	5d                   	pop    ebp
 8048a52:	c3                   	ret    

08048a53 <thank_you_151>:
 8048a53:	55                   	push   ebp
 8048a54:	89 e5                	mov    ebp,esp
 8048a56:	b8 97 ff ff ff       	mov    eax,0xffffff97
 8048a5b:	5d                   	pop    ebp
 8048a5c:	c3                   	ret    

08048a5d <thank_you_152>:
 8048a5d:	55                   	push   ebp
 8048a5e:	89 e5                	mov    ebp,esp
 8048a60:	b8 98 ff ff ff       	mov    eax,0xffffff98
 8048a65:	5d                   	pop    ebp
 8048a66:	c3                   	ret    

08048a67 <thank_you_153>:
 8048a67:	55                   	push   ebp
 8048a68:	89 e5                	mov    ebp,esp
 8048a6a:	b8 99 ff ff ff       	mov    eax,0xffffff99
 8048a6f:	5d                   	pop    ebp
 8048a70:	c3                   	ret    

08048a71 <thank_you_154>:
 8048a71:	55                   	push   ebp
 8048a72:	89 e5                	mov    ebp,esp
 8048a74:	b8 9a ff ff ff       	mov    eax,0xffffff9a
 8048a79:	5d                   	pop    ebp
 8048a7a:	c3                   	ret    

08048a7b <thank_you_155>:
 8048a7b:	55                   	push   ebp
 8048a7c:	89 e5                	mov    ebp,esp
 8048a7e:	b8 9b ff ff ff       	mov    eax,0xffffff9b
 8048a83:	5d                   	pop    ebp
 8048a84:	c3                   	ret    

08048a85 <thank_you_156>:
 8048a85:	55                   	push   ebp
 8048a86:	89 e5                	mov    ebp,esp
 8048a88:	b8 9c ff ff ff       	mov    eax,0xffffff9c
 8048a8d:	5d                   	pop    ebp
 8048a8e:	c3                   	ret    

08048a8f <thank_you_157>:
 8048a8f:	55                   	push   ebp
 8048a90:	89 e5                	mov    ebp,esp
 8048a92:	b8 9d ff ff ff       	mov    eax,0xffffff9d
 8048a97:	5d                   	pop    ebp
 8048a98:	c3                   	ret    

08048a99 <thank_you_158>:
 8048a99:	55                   	push   ebp
 8048a9a:	89 e5                	mov    ebp,esp
 8048a9c:	b8 9e ff ff ff       	mov    eax,0xffffff9e
 8048aa1:	5d                   	pop    ebp
 8048aa2:	c3                   	ret    

08048aa3 <thank_you_159>:
 8048aa3:	55                   	push   ebp
 8048aa4:	89 e5                	mov    ebp,esp
 8048aa6:	b8 9f ff ff ff       	mov    eax,0xffffff9f
 8048aab:	5d                   	pop    ebp
 8048aac:	c3                   	ret    

08048aad <thank_you_160>:
 8048aad:	55                   	push   ebp
 8048aae:	89 e5                	mov    ebp,esp
 8048ab0:	b8 a0 ff ff ff       	mov    eax,0xffffffa0
 8048ab5:	5d                   	pop    ebp
 8048ab6:	c3                   	ret    

08048ab7 <thank_you_161>:
 8048ab7:	55                   	push   ebp
 8048ab8:	89 e5                	mov    ebp,esp
 8048aba:	b8 a1 ff ff ff       	mov    eax,0xffffffa1
 8048abf:	5d                   	pop    ebp
 8048ac0:	c3                   	ret    

08048ac1 <thank_you_162>:
 8048ac1:	55                   	push   ebp
 8048ac2:	89 e5                	mov    ebp,esp
 8048ac4:	b8 a2 ff ff ff       	mov    eax,0xffffffa2
 8048ac9:	5d                   	pop    ebp
 8048aca:	c3                   	ret    

08048acb <thank_you_163>:
 8048acb:	55                   	push   ebp
 8048acc:	89 e5                	mov    ebp,esp
 8048ace:	b8 a3 ff ff ff       	mov    eax,0xffffffa3
 8048ad3:	5d                   	pop    ebp
 8048ad4:	c3                   	ret    

08048ad5 <thank_you_164>:
 8048ad5:	55                   	push   ebp
 8048ad6:	89 e5                	mov    ebp,esp
 8048ad8:	b8 a4 ff ff ff       	mov    eax,0xffffffa4
 8048add:	5d                   	pop    ebp
 8048ade:	c3                   	ret    

08048adf <thank_you_165>:
 8048adf:	55                   	push   ebp
 8048ae0:	89 e5                	mov    ebp,esp
 8048ae2:	b8 a5 ff ff ff       	mov    eax,0xffffffa5
 8048ae7:	5d                   	pop    ebp
 8048ae8:	c3                   	ret    

08048ae9 <thank_you_166>:
 8048ae9:	55                   	push   ebp
 8048aea:	89 e5                	mov    ebp,esp
 8048aec:	b8 a6 ff ff ff       	mov    eax,0xffffffa6
 8048af1:	5d                   	pop    ebp
 8048af2:	c3                   	ret    

08048af3 <thank_you_167>:
 8048af3:	55                   	push   ebp
 8048af4:	89 e5                	mov    ebp,esp
 8048af6:	b8 a7 ff ff ff       	mov    eax,0xffffffa7
 8048afb:	5d                   	pop    ebp
 8048afc:	c3                   	ret    

08048afd <thank_you_168>:
 8048afd:	55                   	push   ebp
 8048afe:	89 e5                	mov    ebp,esp
 8048b00:	b8 a8 ff ff ff       	mov    eax,0xffffffa8
 8048b05:	5d                   	pop    ebp
 8048b06:	c3                   	ret    

08048b07 <thank_you_169>:
 8048b07:	55                   	push   ebp
 8048b08:	89 e5                	mov    ebp,esp
 8048b0a:	b8 a9 ff ff ff       	mov    eax,0xffffffa9
 8048b0f:	5d                   	pop    ebp
 8048b10:	c3                   	ret    

08048b11 <thank_you_170>:
 8048b11:	55                   	push   ebp
 8048b12:	89 e5                	mov    ebp,esp
 8048b14:	b8 aa ff ff ff       	mov    eax,0xffffffaa
 8048b19:	5d                   	pop    ebp
 8048b1a:	c3                   	ret    

08048b1b <thank_you_171>:
 8048b1b:	55                   	push   ebp
 8048b1c:	89 e5                	mov    ebp,esp
 8048b1e:	b8 ab ff ff ff       	mov    eax,0xffffffab
 8048b23:	5d                   	pop    ebp
 8048b24:	c3                   	ret    

08048b25 <thank_you_172>:
 8048b25:	55                   	push   ebp
 8048b26:	89 e5                	mov    ebp,esp
 8048b28:	b8 ac ff ff ff       	mov    eax,0xffffffac
 8048b2d:	5d                   	pop    ebp
 8048b2e:	c3                   	ret    

08048b2f <thank_you_173>:
 8048b2f:	55                   	push   ebp
 8048b30:	89 e5                	mov    ebp,esp
 8048b32:	b8 ad ff ff ff       	mov    eax,0xffffffad
 8048b37:	5d                   	pop    ebp
 8048b38:	c3                   	ret    

08048b39 <thank_you_174>:
 8048b39:	55                   	push   ebp
 8048b3a:	89 e5                	mov    ebp,esp
 8048b3c:	b8 ae ff ff ff       	mov    eax,0xffffffae
 8048b41:	5d                   	pop    ebp
 8048b42:	c3                   	ret    

08048b43 <thank_you_175>:
 8048b43:	55                   	push   ebp
 8048b44:	89 e5                	mov    ebp,esp
 8048b46:	b8 af ff ff ff       	mov    eax,0xffffffaf
 8048b4b:	5d                   	pop    ebp
 8048b4c:	c3                   	ret    

08048b4d <thank_you_176>:
 8048b4d:	55                   	push   ebp
 8048b4e:	89 e5                	mov    ebp,esp
 8048b50:	b8 b0 ff ff ff       	mov    eax,0xffffffb0
 8048b55:	5d                   	pop    ebp
 8048b56:	c3                   	ret    

08048b57 <thank_you_177>:
 8048b57:	55                   	push   ebp
 8048b58:	89 e5                	mov    ebp,esp
 8048b5a:	b8 b1 ff ff ff       	mov    eax,0xffffffb1
 8048b5f:	5d                   	pop    ebp
 8048b60:	c3                   	ret    

08048b61 <thank_you_178>:
 8048b61:	55                   	push   ebp
 8048b62:	89 e5                	mov    ebp,esp
 8048b64:	b8 b2 ff ff ff       	mov    eax,0xffffffb2
 8048b69:	5d                   	pop    ebp
 8048b6a:	c3                   	ret    

08048b6b <thank_you_179>:
 8048b6b:	55                   	push   ebp
 8048b6c:	89 e5                	mov    ebp,esp
 8048b6e:	b8 b3 ff ff ff       	mov    eax,0xffffffb3
 8048b73:	5d                   	pop    ebp
 8048b74:	c3                   	ret    

08048b75 <thank_you_180>:
 8048b75:	55                   	push   ebp
 8048b76:	89 e5                	mov    ebp,esp
 8048b78:	b8 b4 ff ff ff       	mov    eax,0xffffffb4
 8048b7d:	5d                   	pop    ebp
 8048b7e:	c3                   	ret    

08048b7f <thank_you_181>:
 8048b7f:	55                   	push   ebp
 8048b80:	89 e5                	mov    ebp,esp
 8048b82:	b8 b5 ff ff ff       	mov    eax,0xffffffb5
 8048b87:	5d                   	pop    ebp
 8048b88:	c3                   	ret    

08048b89 <thank_you_182>:
 8048b89:	55                   	push   ebp
 8048b8a:	89 e5                	mov    ebp,esp
 8048b8c:	b8 b6 ff ff ff       	mov    eax,0xffffffb6
 8048b91:	5d                   	pop    ebp
 8048b92:	c3                   	ret    

08048b93 <thank_you_183>:
 8048b93:	55                   	push   ebp
 8048b94:	89 e5                	mov    ebp,esp
 8048b96:	b8 b7 ff ff ff       	mov    eax,0xffffffb7
 8048b9b:	5d                   	pop    ebp
 8048b9c:	c3                   	ret    

08048b9d <thank_you_184>:
 8048b9d:	55                   	push   ebp
 8048b9e:	89 e5                	mov    ebp,esp
 8048ba0:	b8 b8 ff ff ff       	mov    eax,0xffffffb8
 8048ba5:	5d                   	pop    ebp
 8048ba6:	c3                   	ret    

08048ba7 <thank_you_185>:
 8048ba7:	55                   	push   ebp
 8048ba8:	89 e5                	mov    ebp,esp
 8048baa:	b8 b9 ff ff ff       	mov    eax,0xffffffb9
 8048baf:	5d                   	pop    ebp
 8048bb0:	c3                   	ret    

08048bb1 <thank_you_186>:
 8048bb1:	55                   	push   ebp
 8048bb2:	89 e5                	mov    ebp,esp
 8048bb4:	b8 ba ff ff ff       	mov    eax,0xffffffba
 8048bb9:	5d                   	pop    ebp
 8048bba:	c3                   	ret    

08048bbb <thank_you_187>:
 8048bbb:	55                   	push   ebp
 8048bbc:	89 e5                	mov    ebp,esp
 8048bbe:	b8 bb ff ff ff       	mov    eax,0xffffffbb
 8048bc3:	5d                   	pop    ebp
 8048bc4:	c3                   	ret    

08048bc5 <thank_you_188>:
 8048bc5:	55                   	push   ebp
 8048bc6:	89 e5                	mov    ebp,esp
 8048bc8:	b8 bc ff ff ff       	mov    eax,0xffffffbc
 8048bcd:	5d                   	pop    ebp
 8048bce:	c3                   	ret    

08048bcf <thank_you_189>:
 8048bcf:	55                   	push   ebp
 8048bd0:	89 e5                	mov    ebp,esp
 8048bd2:	b8 bd ff ff ff       	mov    eax,0xffffffbd
 8048bd7:	5d                   	pop    ebp
 8048bd8:	c3                   	ret    

08048bd9 <thank_you_190>:
 8048bd9:	55                   	push   ebp
 8048bda:	89 e5                	mov    ebp,esp
 8048bdc:	b8 be ff ff ff       	mov    eax,0xffffffbe
 8048be1:	5d                   	pop    ebp
 8048be2:	c3                   	ret    

08048be3 <thank_you_191>:
 8048be3:	55                   	push   ebp
 8048be4:	89 e5                	mov    ebp,esp
 8048be6:	b8 bf ff ff ff       	mov    eax,0xffffffbf
 8048beb:	5d                   	pop    ebp
 8048bec:	c3                   	ret    

08048bed <thank_you_192>:
 8048bed:	55                   	push   ebp
 8048bee:	89 e5                	mov    ebp,esp
 8048bf0:	b8 c0 ff ff ff       	mov    eax,0xffffffc0
 8048bf5:	5d                   	pop    ebp
 8048bf6:	c3                   	ret    

08048bf7 <thank_you_193>:
 8048bf7:	55                   	push   ebp
 8048bf8:	89 e5                	mov    ebp,esp
 8048bfa:	b8 c1 ff ff ff       	mov    eax,0xffffffc1
 8048bff:	5d                   	pop    ebp
 8048c00:	c3                   	ret    

08048c01 <thank_you_194>:
 8048c01:	55                   	push   ebp
 8048c02:	89 e5                	mov    ebp,esp
 8048c04:	b8 c2 ff ff ff       	mov    eax,0xffffffc2
 8048c09:	5d                   	pop    ebp
 8048c0a:	c3                   	ret    

08048c0b <thank_you_195>:
 8048c0b:	55                   	push   ebp
 8048c0c:	89 e5                	mov    ebp,esp
 8048c0e:	b8 c3 ff ff ff       	mov    eax,0xffffffc3
 8048c13:	5d                   	pop    ebp
 8048c14:	c3                   	ret    

08048c15 <thank_you_196>:
 8048c15:	55                   	push   ebp
 8048c16:	89 e5                	mov    ebp,esp
 8048c18:	b8 c4 ff ff ff       	mov    eax,0xffffffc4
 8048c1d:	5d                   	pop    ebp
 8048c1e:	c3                   	ret    

08048c1f <thank_you_197>:
 8048c1f:	55                   	push   ebp
 8048c20:	89 e5                	mov    ebp,esp
 8048c22:	b8 c5 ff ff ff       	mov    eax,0xffffffc5
 8048c27:	5d                   	pop    ebp
 8048c28:	c3                   	ret    

08048c29 <thank_you_198>:
 8048c29:	55                   	push   ebp
 8048c2a:	89 e5                	mov    ebp,esp
 8048c2c:	b8 c6 ff ff ff       	mov    eax,0xffffffc6
 8048c31:	5d                   	pop    ebp
 8048c32:	c3                   	ret    

08048c33 <thank_you_199>:
 8048c33:	55                   	push   ebp
 8048c34:	89 e5                	mov    ebp,esp
 8048c36:	b8 c7 ff ff ff       	mov    eax,0xffffffc7
 8048c3b:	5d                   	pop    ebp
 8048c3c:	c3                   	ret    

08048c3d <thank_you_200>:
 8048c3d:	55                   	push   ebp
 8048c3e:	89 e5                	mov    ebp,esp
 8048c40:	b8 c8 ff ff ff       	mov    eax,0xffffffc8
 8048c45:	5d                   	pop    ebp
 8048c46:	c3                   	ret    

08048c47 <thank_you_201>:
 8048c47:	55                   	push   ebp
 8048c48:	89 e5                	mov    ebp,esp
 8048c4a:	b8 c9 ff ff ff       	mov    eax,0xffffffc9
 8048c4f:	5d                   	pop    ebp
 8048c50:	c3                   	ret    

08048c51 <thank_you_202>:
 8048c51:	55                   	push   ebp
 8048c52:	89 e5                	mov    ebp,esp
 8048c54:	b8 ca ff ff ff       	mov    eax,0xffffffca
 8048c59:	5d                   	pop    ebp
 8048c5a:	c3                   	ret    

08048c5b <thank_you_203>:
 8048c5b:	55                   	push   ebp
 8048c5c:	89 e5                	mov    ebp,esp
 8048c5e:	b8 cb ff ff ff       	mov    eax,0xffffffcb
 8048c63:	5d                   	pop    ebp
 8048c64:	c3                   	ret    

08048c65 <thank_you_204>:
 8048c65:	55                   	push   ebp
 8048c66:	89 e5                	mov    ebp,esp
 8048c68:	b8 cc ff ff ff       	mov    eax,0xffffffcc
 8048c6d:	5d                   	pop    ebp
 8048c6e:	c3                   	ret    

08048c6f <thank_you_205>:
 8048c6f:	55                   	push   ebp
 8048c70:	89 e5                	mov    ebp,esp
 8048c72:	b8 cd ff ff ff       	mov    eax,0xffffffcd
 8048c77:	5d                   	pop    ebp
 8048c78:	c3                   	ret    

08048c79 <thank_you_206>:
 8048c79:	55                   	push   ebp
 8048c7a:	89 e5                	mov    ebp,esp
 8048c7c:	b8 ce ff ff ff       	mov    eax,0xffffffce
 8048c81:	5d                   	pop    ebp
 8048c82:	c3                   	ret    

08048c83 <thank_you_207>:
 8048c83:	55                   	push   ebp
 8048c84:	89 e5                	mov    ebp,esp
 8048c86:	b8 cf ff ff ff       	mov    eax,0xffffffcf
 8048c8b:	5d                   	pop    ebp
 8048c8c:	c3                   	ret    

08048c8d <thank_you_208>:
 8048c8d:	55                   	push   ebp
 8048c8e:	89 e5                	mov    ebp,esp
 8048c90:	b8 d0 ff ff ff       	mov    eax,0xffffffd0
 8048c95:	5d                   	pop    ebp
 8048c96:	c3                   	ret    

08048c97 <thank_you_209>:
 8048c97:	55                   	push   ebp
 8048c98:	89 e5                	mov    ebp,esp
 8048c9a:	b8 d1 ff ff ff       	mov    eax,0xffffffd1
 8048c9f:	5d                   	pop    ebp
 8048ca0:	c3                   	ret    

08048ca1 <thank_you_210>:
 8048ca1:	55                   	push   ebp
 8048ca2:	89 e5                	mov    ebp,esp
 8048ca4:	b8 d2 ff ff ff       	mov    eax,0xffffffd2
 8048ca9:	5d                   	pop    ebp
 8048caa:	c3                   	ret    

08048cab <thank_you_211>:
 8048cab:	55                   	push   ebp
 8048cac:	89 e5                	mov    ebp,esp
 8048cae:	b8 79 00 00 00       	mov    eax,0x79
 8048cb3:	5d                   	pop    ebp
 8048cb4:	c3                   	ret    

08048cb5 <thank_you_212>:
 8048cb5:	55                   	push   ebp
 8048cb6:	89 e5                	mov    ebp,esp
 8048cb8:	b8 d4 ff ff ff       	mov    eax,0xffffffd4
 8048cbd:	5d                   	pop    ebp
 8048cbe:	c3                   	ret    

08048cbf <thank_you_213>:
 8048cbf:	55                   	push   ebp
 8048cc0:	89 e5                	mov    ebp,esp
 8048cc2:	b8 d5 ff ff ff       	mov    eax,0xffffffd5
 8048cc7:	5d                   	pop    ebp
 8048cc8:	c3                   	ret    

08048cc9 <thank_you_214>:
 8048cc9:	55                   	push   ebp
 8048cca:	89 e5                	mov    ebp,esp
 8048ccc:	b8 d6 ff ff ff       	mov    eax,0xffffffd6
 8048cd1:	5d                   	pop    ebp
 8048cd2:	c3                   	ret    

08048cd3 <thank_you_215>:
 8048cd3:	55                   	push   ebp
 8048cd4:	89 e5                	mov    ebp,esp
 8048cd6:	b8 d7 ff ff ff       	mov    eax,0xffffffd7
 8048cdb:	5d                   	pop    ebp
 8048cdc:	c3                   	ret    

08048cdd <thank_you_216>:
 8048cdd:	55                   	push   ebp
 8048cde:	89 e5                	mov    ebp,esp
 8048ce0:	b8 d8 ff ff ff       	mov    eax,0xffffffd8
 8048ce5:	5d                   	pop    ebp
 8048ce6:	c3                   	ret    

08048ce7 <thank_you_217>:
 8048ce7:	55                   	push   ebp
 8048ce8:	89 e5                	mov    ebp,esp
 8048cea:	b8 d9 ff ff ff       	mov    eax,0xffffffd9
 8048cef:	5d                   	pop    ebp
 8048cf0:	c3                   	ret    

08048cf1 <thank_you_218>:
 8048cf1:	55                   	push   ebp
 8048cf2:	89 e5                	mov    ebp,esp
 8048cf4:	b8 da ff ff ff       	mov    eax,0xffffffda
 8048cf9:	5d                   	pop    ebp
 8048cfa:	c3                   	ret    

08048cfb <thank_you_219>:
 8048cfb:	55                   	push   ebp
 8048cfc:	89 e5                	mov    ebp,esp
 8048cfe:	b8 db ff ff ff       	mov    eax,0xffffffdb
 8048d03:	5d                   	pop    ebp
 8048d04:	c3                   	ret    

08048d05 <thank_you_220>:
 8048d05:	55                   	push   ebp
 8048d06:	89 e5                	mov    ebp,esp
 8048d08:	b8 dc ff ff ff       	mov    eax,0xffffffdc
 8048d0d:	5d                   	pop    ebp
 8048d0e:	c3                   	ret    

08048d0f <thank_you_221>:
 8048d0f:	55                   	push   ebp
 8048d10:	89 e5                	mov    ebp,esp
 8048d12:	b8 dd ff ff ff       	mov    eax,0xffffffdd
 8048d17:	5d                   	pop    ebp
 8048d18:	c3                   	ret    

08048d19 <thank_you_222>:
 8048d19:	55                   	push   ebp
 8048d1a:	89 e5                	mov    ebp,esp
 8048d1c:	b8 de ff ff ff       	mov    eax,0xffffffde
 8048d21:	5d                   	pop    ebp
 8048d22:	c3                   	ret    

08048d23 <thank_you_223>:
 8048d23:	55                   	push   ebp
 8048d24:	89 e5                	mov    ebp,esp
 8048d26:	b8 df ff ff ff       	mov    eax,0xffffffdf
 8048d2b:	5d                   	pop    ebp
 8048d2c:	c3                   	ret    

08048d2d <thank_you_224>:
 8048d2d:	55                   	push   ebp
 8048d2e:	89 e5                	mov    ebp,esp
 8048d30:	b8 e0 ff ff ff       	mov    eax,0xffffffe0
 8048d35:	5d                   	pop    ebp
 8048d36:	c3                   	ret    

08048d37 <thank_you_225>:
 8048d37:	55                   	push   ebp
 8048d38:	89 e5                	mov    ebp,esp
 8048d3a:	b8 e1 ff ff ff       	mov    eax,0xffffffe1
 8048d3f:	5d                   	pop    ebp
 8048d40:	c3                   	ret    

08048d41 <thank_you_226>:
 8048d41:	55                   	push   ebp
 8048d42:	89 e5                	mov    ebp,esp
 8048d44:	b8 e2 ff ff ff       	mov    eax,0xffffffe2
 8048d49:	5d                   	pop    ebp
 8048d4a:	c3                   	ret    

08048d4b <thank_you_227>:
 8048d4b:	55                   	push   ebp
 8048d4c:	89 e5                	mov    ebp,esp
 8048d4e:	b8 e3 ff ff ff       	mov    eax,0xffffffe3
 8048d53:	5d                   	pop    ebp
 8048d54:	c3                   	ret    

08048d55 <thank_you_228>:
 8048d55:	55                   	push   ebp
 8048d56:	89 e5                	mov    ebp,esp
 8048d58:	b8 e4 ff ff ff       	mov    eax,0xffffffe4
 8048d5d:	5d                   	pop    ebp
 8048d5e:	c3                   	ret    

08048d5f <thank_you_229>:
 8048d5f:	55                   	push   ebp
 8048d60:	89 e5                	mov    ebp,esp
 8048d62:	b8 e5 ff ff ff       	mov    eax,0xffffffe5
 8048d67:	5d                   	pop    ebp
 8048d68:	c3                   	ret    

08048d69 <thank_you_230>:
 8048d69:	55                   	push   ebp
 8048d6a:	89 e5                	mov    ebp,esp
 8048d6c:	b8 e6 ff ff ff       	mov    eax,0xffffffe6
 8048d71:	5d                   	pop    ebp
 8048d72:	c3                   	ret    

08048d73 <thank_you_231>:
 8048d73:	55                   	push   ebp
 8048d74:	89 e5                	mov    ebp,esp
 8048d76:	b8 e7 ff ff ff       	mov    eax,0xffffffe7
 8048d7b:	5d                   	pop    ebp
 8048d7c:	c3                   	ret    

08048d7d <thank_you_232>:
 8048d7d:	55                   	push   ebp
 8048d7e:	89 e5                	mov    ebp,esp
 8048d80:	b8 e8 ff ff ff       	mov    eax,0xffffffe8
 8048d85:	5d                   	pop    ebp
 8048d86:	c3                   	ret    

08048d87 <thank_you_233>:
 8048d87:	55                   	push   ebp
 8048d88:	89 e5                	mov    ebp,esp
 8048d8a:	b8 e9 ff ff ff       	mov    eax,0xffffffe9
 8048d8f:	5d                   	pop    ebp
 8048d90:	c3                   	ret    

08048d91 <thank_you_234>:
 8048d91:	55                   	push   ebp
 8048d92:	89 e5                	mov    ebp,esp
 8048d94:	b8 ea ff ff ff       	mov    eax,0xffffffea
 8048d99:	5d                   	pop    ebp
 8048d9a:	c3                   	ret    

08048d9b <thank_you_235>:
 8048d9b:	55                   	push   ebp
 8048d9c:	89 e5                	mov    ebp,esp
 8048d9e:	b8 eb ff ff ff       	mov    eax,0xffffffeb
 8048da3:	5d                   	pop    ebp
 8048da4:	c3                   	ret    

08048da5 <thank_you_236>:
 8048da5:	55                   	push   ebp
 8048da6:	89 e5                	mov    ebp,esp
 8048da8:	b8 ec ff ff ff       	mov    eax,0xffffffec
 8048dad:	5d                   	pop    ebp
 8048dae:	c3                   	ret    

08048daf <thank_you_237>:
 8048daf:	55                   	push   ebp
 8048db0:	89 e5                	mov    ebp,esp
 8048db2:	b8 ed ff ff ff       	mov    eax,0xffffffed
 8048db7:	5d                   	pop    ebp
 8048db8:	c3                   	ret    

08048db9 <thank_you_238>:
 8048db9:	55                   	push   ebp
 8048dba:	89 e5                	mov    ebp,esp
 8048dbc:	b8 ee ff ff ff       	mov    eax,0xffffffee
 8048dc1:	5d                   	pop    ebp
 8048dc2:	c3                   	ret    

08048dc3 <thank_you_239>:
 8048dc3:	55                   	push   ebp
 8048dc4:	89 e5                	mov    ebp,esp
 8048dc6:	b8 ef ff ff ff       	mov    eax,0xffffffef
 8048dcb:	5d                   	pop    ebp
 8048dcc:	c3                   	ret    

08048dcd <thank_you_240>:
 8048dcd:	55                   	push   ebp
 8048dce:	89 e5                	mov    ebp,esp
 8048dd0:	b8 f0 ff ff ff       	mov    eax,0xfffffff0
 8048dd5:	5d                   	pop    ebp
 8048dd6:	c3                   	ret    

08048dd7 <thank_you_241>:
 8048dd7:	55                   	push   ebp
 8048dd8:	89 e5                	mov    ebp,esp
 8048dda:	b8 f1 ff ff ff       	mov    eax,0xfffffff1
 8048ddf:	5d                   	pop    ebp
 8048de0:	c3                   	ret    

08048de1 <thank_you_242>:
 8048de1:	55                   	push   ebp
 8048de2:	89 e5                	mov    ebp,esp
 8048de4:	b8 f2 ff ff ff       	mov    eax,0xfffffff2
 8048de9:	5d                   	pop    ebp
 8048dea:	c3                   	ret    

08048deb <thank_you_243>:
 8048deb:	55                   	push   ebp
 8048dec:	89 e5                	mov    ebp,esp
 8048dee:	b8 f3 ff ff ff       	mov    eax,0xfffffff3
 8048df3:	5d                   	pop    ebp
 8048df4:	c3                   	ret    

08048df5 <thank_you_244>:
 8048df5:	55                   	push   ebp
 8048df6:	89 e5                	mov    ebp,esp
 8048df8:	b8 f4 ff ff ff       	mov    eax,0xfffffff4
 8048dfd:	5d                   	pop    ebp
 8048dfe:	c3                   	ret    

08048dff <thank_you_245>:
 8048dff:	55                   	push   ebp
 8048e00:	89 e5                	mov    ebp,esp
 8048e02:	b8 f5 ff ff ff       	mov    eax,0xfffffff5
 8048e07:	5d                   	pop    ebp
 8048e08:	c3                   	ret    

08048e09 <thank_you_246>:
 8048e09:	55                   	push   ebp
 8048e0a:	89 e5                	mov    ebp,esp
 8048e0c:	b8 f6 ff ff ff       	mov    eax,0xfffffff6
 8048e11:	5d                   	pop    ebp
 8048e12:	c3                   	ret    

08048e13 <thank_you_247>:
 8048e13:	55                   	push   ebp
 8048e14:	89 e5                	mov    ebp,esp
 8048e16:	b8 f7 ff ff ff       	mov    eax,0xfffffff7
 8048e1b:	5d                   	pop    ebp
 8048e1c:	c3                   	ret    

08048e1d <thank_you_248>:
 8048e1d:	55                   	push   ebp
 8048e1e:	89 e5                	mov    ebp,esp
 8048e20:	b8 f8 ff ff ff       	mov    eax,0xfffffff8
 8048e25:	5d                   	pop    ebp
 8048e26:	c3                   	ret    

08048e27 <thank_you_249>:
 8048e27:	55                   	push   ebp
 8048e28:	89 e5                	mov    ebp,esp
 8048e2a:	b8 f9 ff ff ff       	mov    eax,0xfffffff9
 8048e2f:	5d                   	pop    ebp
 8048e30:	c3                   	ret    

08048e31 <thank_you_250>:
 8048e31:	55                   	push   ebp
 8048e32:	89 e5                	mov    ebp,esp
 8048e34:	b8 fa ff ff ff       	mov    eax,0xfffffffa
 8048e39:	5d                   	pop    ebp
 8048e3a:	c3                   	ret    

08048e3b <thank_you_251>:
 8048e3b:	55                   	push   ebp
 8048e3c:	89 e5                	mov    ebp,esp
 8048e3e:	b8 fb ff ff ff       	mov    eax,0xfffffffb
 8048e43:	5d                   	pop    ebp
 8048e44:	c3                   	ret    

08048e45 <thank_you_252>:
 8048e45:	55                   	push   ebp
 8048e46:	89 e5                	mov    ebp,esp
 8048e48:	b8 fc ff ff ff       	mov    eax,0xfffffffc
 8048e4d:	5d                   	pop    ebp
 8048e4e:	c3                   	ret    

08048e4f <thank_you_253>:
 8048e4f:	55                   	push   ebp
 8048e50:	89 e5                	mov    ebp,esp
 8048e52:	b8 fd ff ff ff       	mov    eax,0xfffffffd
 8048e57:	5d                   	pop    ebp
 8048e58:	c3                   	ret    

08048e59 <thank_you_254>:
 8048e59:	55                   	push   ebp
 8048e5a:	89 e5                	mov    ebp,esp
 8048e5c:	b8 fe ff ff ff       	mov    eax,0xfffffffe
 8048e61:	5d                   	pop    ebp
 8048e62:	c3                   	ret    

08048e63 <julie_do_the_thing>:
 8048e63:	55                   	push   ebp
 8048e64:	89 e5                	mov    ebp,esp
 8048e66:	57                   	push   edi
 8048e67:	56                   	push   esi
 8048e68:	53                   	push   ebx
 8048e69:	81 ec 9c 00 00 00    	sub    esp,0x9c
 8048e6f:	65 a1 14 00 00 00    	mov    eax,gs:0x14
 8048e75:	89 45 e4             	mov    DWORD PTR [ebp-0x1c],eax
 8048e78:	31 c0                	xor    eax,eax
 8048e7a:	8d 95 60 ff ff ff    	lea    edx,[ebp-0xa0]
 8048e80:	bb e0 8f 04 08       	mov    ebx,0x8048fe0
 8048e85:	b8 1a 00 00 00       	mov    eax,0x1a
 8048e8a:	89 d7                	mov    edi,edx
 8048e8c:	89 de                	mov    esi,ebx
 8048e8e:	89 c1                	mov    ecx,eax
 8048e90:	f3 a5                	rep movs DWORD PTR es:[edi],DWORD PTR ds:[esi]
 8048e92:	c7 85 58 ff ff ff 00 	mov    DWORD PTR [ebp-0xa8],0x0
 8048e99:	00 00 00 
 8048e9c:	eb 2f                	jmp    8048ecd <julie_do_the_thing+0x6a>
 8048e9e:	8b 85 58 ff ff ff    	mov    eax,DWORD PTR [ebp-0xa8]
 8048ea4:	8b 84 85 60 ff ff ff 	mov    eax,DWORD PTR [ebp+eax*4-0xa0]
 8048eab:	89 85 5c ff ff ff    	mov    DWORD PTR [ebp-0xa4],eax
 8048eb1:	8b 85 5c ff ff ff    	mov    eax,DWORD PTR [ebp-0xa4]
 8048eb7:	ff d0                	call   eax
 8048eb9:	8d 4d ca             	lea    ecx,[ebp-0x36]
 8048ebc:	8b 95 58 ff ff ff    	mov    edx,DWORD PTR [ebp-0xa8]
 8048ec2:	01 ca                	add    edx,ecx
 8048ec4:	88 02                	mov    BYTE PTR [edx],al
 8048ec6:	83 85 58 ff ff ff 01 	add    DWORD PTR [ebp-0xa8],0x1
 8048ecd:	83 bd 58 ff ff ff 19 	cmp    DWORD PTR [ebp-0xa8],0x19
 8048ed4:	7e c8                	jle    8048e9e <julie_do_the_thing+0x3b>
 8048ed6:	8b 45 e4             	mov    eax,DWORD PTR [ebp-0x1c]
 8048ed9:	65 33 05 14 00 00 00 	xor    eax,DWORD PTR gs:0x14
 8048ee0:	74 05                	je     8048ee7 <julie_do_the_thing+0x84>
 8048ee2:	e8 49 f4 ff ff       	call   8048330 <__stack_chk_fail@plt>
 8048ee7:	81 c4 9c 00 00 00    	add    esp,0x9c
 8048eed:	5b                   	pop    ebx
 8048eee:	5e                   	pop    esi
 8048eef:	5f                   	pop    edi
 8048ef0:	5d                   	pop    ebp
 8048ef1:	c3                   	ret    

08048ef2 <main>:
 8048ef2:	55                   	push   ebp
 8048ef3:	89 e5                	mov    ebp,esp
 8048ef5:	83 e4 f0             	and    esp,0xfffffff0
 8048ef8:	83 ec 10             	sub    esp,0x10
 8048efb:	e8 63 ff ff ff       	call   8048e63 <julie_do_the_thing>
 8048f00:	c7 04 24 48 90 04 08 	mov    DWORD PTR [esp],0x8049048
 8048f07:	e8 34 f4 ff ff       	call   8048340 <puts@plt>
 8048f0c:	b8 00 00 00 00       	mov    eax,0x0
 8048f11:	c9                   	leave  
 8048f12:	c3                   	ret    
 8048f13:	66 90                	xchg   ax,ax
 8048f15:	66 90                	xchg   ax,ax
 8048f17:	66 90                	xchg   ax,ax
 8048f19:	66 90                	xchg   ax,ax
 8048f1b:	66 90                	xchg   ax,ax
 8048f1d:	66 90                	xchg   ax,ax
 8048f1f:	90                   	nop

08048f20 <__libc_csu_init>:
 8048f20:	55                   	push   ebp
 8048f21:	57                   	push   edi
 8048f22:	31 ff                	xor    edi,edi
 8048f24:	56                   	push   esi
 8048f25:	53                   	push   ebx
 8048f26:	e8 75 f4 ff ff       	call   80483a0 <__x86.get_pc_thunk.bx>
 8048f2b:	81 c3 d5 40 00 00    	add    ebx,0x40d5
 8048f31:	83 ec 1c             	sub    esp,0x1c
 8048f34:	8b 6c 24 30          	mov    ebp,DWORD PTR [esp+0x30]
 8048f38:	8d b3 0c ff ff ff    	lea    esi,[ebx-0xf4]
 8048f3e:	e8 b5 f3 ff ff       	call   80482f8 <_init>
 8048f43:	8d 83 08 ff ff ff    	lea    eax,[ebx-0xf8]
 8048f49:	29 c6                	sub    esi,eax
 8048f4b:	c1 fe 02             	sar    esi,0x2
 8048f4e:	85 f6                	test   esi,esi
 8048f50:	74 27                	je     8048f79 <__libc_csu_init+0x59>
 8048f52:	8d b6 00 00 00 00    	lea    esi,[esi+0x0]
 8048f58:	8b 44 24 38          	mov    eax,DWORD PTR [esp+0x38]
 8048f5c:	89 2c 24             	mov    DWORD PTR [esp],ebp
 8048f5f:	89 44 24 08          	mov    DWORD PTR [esp+0x8],eax
 8048f63:	8b 44 24 34          	mov    eax,DWORD PTR [esp+0x34]
 8048f67:	89 44 24 04          	mov    DWORD PTR [esp+0x4],eax
 8048f6b:	ff 94 bb 08 ff ff ff 	call   DWORD PTR [ebx+edi*4-0xf8]
 8048f72:	83 c7 01             	add    edi,0x1
 8048f75:	39 f7                	cmp    edi,esi
 8048f77:	75 df                	jne    8048f58 <__libc_csu_init+0x38>
 8048f79:	83 c4 1c             	add    esp,0x1c
 8048f7c:	5b                   	pop    ebx
 8048f7d:	5e                   	pop    esi
 8048f7e:	5f                   	pop    edi
 8048f7f:	5d                   	pop    ebp
 8048f80:	c3                   	ret    
 8048f81:	eb 0d                	jmp    8048f90 <__libc_csu_fini>
 8048f83:	90                   	nop
 8048f84:	90                   	nop
 8048f85:	90                   	nop
 8048f86:	90                   	nop
 8048f87:	90                   	nop
 8048f88:	90                   	nop
 8048f89:	90                   	nop
 8048f8a:	90                   	nop
 8048f8b:	90                   	nop
 8048f8c:	90                   	nop
 8048f8d:	90                   	nop
 8048f8e:	90                   	nop
 8048f8f:	90                   	nop

08048f90 <__libc_csu_fini>:
 8048f90:	f3 c3                	repz ret 

Disassembly of section .fini:

08048f94 <_fini>:
 8048f94:	53                   	push   ebx
 8048f95:	83 ec 08             	sub    esp,0x8
 8048f98:	e8 03 f4 ff ff       	call   80483a0 <__x86.get_pc_thunk.bx>
 8048f9d:	81 c3 63 40 00 00    	add    ebx,0x4063
 8048fa3:	83 c4 08             	add    esp,0x8
 8048fa6:	5b                   	pop    ebx
 8048fa7:	c3                   	ret    
