
recruitExploit:     file format elf32-i386


Disassembly of section .init:

0804875c <_init>:
 804875c:	53                   	push   ebx
 804875d:	83 ec 08             	sub    esp,0x8
 8048760:	e8 bb 02 00 00       	call   8048a20 <__x86.get_pc_thunk.bx>
 8048765:	81 c3 9b 28 00 00    	add    ebx,0x289b
 804876b:	8b 83 fc ff ff ff    	mov    eax,DWORD PTR [ebx-0x4]
 8048771:	85 c0                	test   eax,eax
 8048773:	74 05                	je     804877a <_init+0x1e>
 8048775:	e8 36 01 00 00       	call   80488b0 <__gmon_start__@plt>
 804877a:	83 c4 08             	add    esp,0x8
 804877d:	5b                   	pop    ebx
 804877e:	c3                   	ret    

Disassembly of section .plt:

08048780 <setsockopt@plt-0x10>:
 8048780:	ff 35 04 b0 04 08    	push   DWORD PTR ds:0x804b004
 8048786:	ff 25 08 b0 04 08    	jmp    DWORD PTR ds:0x804b008
 804878c:	00 00                	add    BYTE PTR [eax],al
	...

08048790 <setsockopt@plt>:
 8048790:	ff 25 0c b0 04 08    	jmp    DWORD PTR ds:0x804b00c
 8048796:	68 00 00 00 00       	push   0x0
 804879b:	e9 e0 ff ff ff       	jmp    8048780 <_init+0x24>

080487a0 <getpwnam@plt>:
 80487a0:	ff 25 10 b0 04 08    	jmp    DWORD PTR ds:0x804b010
 80487a6:	68 08 00 00 00       	push   0x8
 80487ab:	e9 d0 ff ff ff       	jmp    8048780 <_init+0x24>

080487b0 <dup2@plt>:
 80487b0:	ff 25 14 b0 04 08    	jmp    DWORD PTR ds:0x804b014
 80487b6:	68 10 00 00 00       	push   0x10
 80487bb:	e9 c0 ff ff ff       	jmp    8048780 <_init+0x24>

080487c0 <read@plt>:
 80487c0:	ff 25 18 b0 04 08    	jmp    DWORD PTR ds:0x804b018
 80487c6:	68 18 00 00 00       	push   0x18
 80487cb:	e9 b0 ff ff ff       	jmp    8048780 <_init+0x24>

080487d0 <free@plt>:
 80487d0:	ff 25 1c b0 04 08    	jmp    DWORD PTR ds:0x804b01c
 80487d6:	68 20 00 00 00       	push   0x20
 80487db:	e9 a0 ff ff ff       	jmp    8048780 <_init+0x24>

080487e0 <bzero@plt>:
 80487e0:	ff 25 20 b0 04 08    	jmp    DWORD PTR ds:0x804b020
 80487e6:	68 28 00 00 00       	push   0x28
 80487eb:	e9 90 ff ff ff       	jmp    8048780 <_init+0x24>

080487f0 <fgets@plt>:
 80487f0:	ff 25 24 b0 04 08    	jmp    DWORD PTR ds:0x804b024
 80487f6:	68 30 00 00 00       	push   0x30
 80487fb:	e9 80 ff ff ff       	jmp    8048780 <_init+0x24>

08048800 <time@plt>:
 8048800:	ff 25 28 b0 04 08    	jmp    DWORD PTR ds:0x804b028
 8048806:	68 38 00 00 00       	push   0x38
 804880b:	e9 70 ff ff ff       	jmp    8048780 <_init+0x24>

08048810 <signal@plt>:
 8048810:	ff 25 2c b0 04 08    	jmp    DWORD PTR ds:0x804b02c
 8048816:	68 40 00 00 00       	push   0x40
 804881b:	e9 60 ff ff ff       	jmp    8048780 <_init+0x24>

08048820 <chdir@plt>:
 8048820:	ff 25 30 b0 04 08    	jmp    DWORD PTR ds:0x804b030
 8048826:	68 48 00 00 00       	push   0x48
 804882b:	e9 50 ff ff ff       	jmp    8048780 <_init+0x24>

08048830 <__stack_chk_fail@plt>:
 8048830:	ff 25 34 b0 04 08    	jmp    DWORD PTR ds:0x804b034
 8048836:	68 50 00 00 00       	push   0x50
 804883b:	e9 40 ff ff ff       	jmp    8048780 <_init+0x24>

08048840 <htons@plt>:
 8048840:	ff 25 38 b0 04 08    	jmp    DWORD PTR ds:0x804b038
 8048846:	68 58 00 00 00       	push   0x58
 804884b:	e9 30 ff ff ff       	jmp    8048780 <_init+0x24>

08048850 <setgroups@plt>:
 8048850:	ff 25 3c b0 04 08    	jmp    DWORD PTR ds:0x804b03c
 8048856:	68 60 00 00 00       	push   0x60
 804885b:	e9 20 ff ff ff       	jmp    8048780 <_init+0x24>

08048860 <perror@plt>:
 8048860:	ff 25 40 b0 04 08    	jmp    DWORD PTR ds:0x804b040
 8048866:	68 68 00 00 00       	push   0x68
 804886b:	e9 10 ff ff ff       	jmp    8048780 <_init+0x24>

08048870 <accept@plt>:
 8048870:	ff 25 44 b0 04 08    	jmp    DWORD PTR ds:0x804b044
 8048876:	68 70 00 00 00       	push   0x70
 804887b:	e9 00 ff ff ff       	jmp    8048780 <_init+0x24>

08048880 <strcpy@plt>:
 8048880:	ff 25 48 b0 04 08    	jmp    DWORD PTR ds:0x804b048
 8048886:	68 78 00 00 00       	push   0x78
 804888b:	e9 f0 fe ff ff       	jmp    8048780 <_init+0x24>

08048890 <setgid@plt>:
 8048890:	ff 25 4c b0 04 08    	jmp    DWORD PTR ds:0x804b04c
 8048896:	68 80 00 00 00       	push   0x80
 804889b:	e9 e0 fe ff ff       	jmp    8048780 <_init+0x24>

080488a0 <getdtablesize@plt>:
 80488a0:	ff 25 50 b0 04 08    	jmp    DWORD PTR ds:0x804b050
 80488a6:	68 88 00 00 00       	push   0x88
 80488ab:	e9 d0 fe ff ff       	jmp    8048780 <_init+0x24>

080488b0 <__gmon_start__@plt>:
 80488b0:	ff 25 54 b0 04 08    	jmp    DWORD PTR ds:0x804b054
 80488b6:	68 90 00 00 00       	push   0x90
 80488bb:	e9 c0 fe ff ff       	jmp    8048780 <_init+0x24>

080488c0 <exit@plt>:
 80488c0:	ff 25 58 b0 04 08    	jmp    DWORD PTR ds:0x804b058
 80488c6:	68 98 00 00 00       	push   0x98
 80488cb:	e9 b0 fe ff ff       	jmp    8048780 <_init+0x24>

080488d0 <open@plt>:
 80488d0:	ff 25 5c b0 04 08    	jmp    DWORD PTR ds:0x804b05c
 80488d6:	68 a0 00 00 00       	push   0xa0
 80488db:	e9 a0 fe ff ff       	jmp    8048780 <_init+0x24>

080488e0 <srand@plt>:
 80488e0:	ff 25 60 b0 04 08    	jmp    DWORD PTR ds:0x804b060
 80488e6:	68 a8 00 00 00       	push   0xa8
 80488eb:	e9 90 fe ff ff       	jmp    8048780 <_init+0x24>

080488f0 <strlen@plt>:
 80488f0:	ff 25 64 b0 04 08    	jmp    DWORD PTR ds:0x804b064
 80488f6:	68 b0 00 00 00       	push   0xb0
 80488fb:	e9 80 fe ff ff       	jmp    8048780 <_init+0x24>

08048900 <__libc_start_main@plt>:
 8048900:	ff 25 68 b0 04 08    	jmp    DWORD PTR ds:0x804b068
 8048906:	68 b8 00 00 00       	push   0xb8
 804890b:	e9 70 fe ff ff       	jmp    8048780 <_init+0x24>

08048910 <vasprintf@plt>:
 8048910:	ff 25 6c b0 04 08    	jmp    DWORD PTR ds:0x804b06c
 8048916:	68 c0 00 00 00       	push   0xc0
 804891b:	e9 60 fe ff ff       	jmp    8048780 <_init+0x24>

08048920 <warnx@plt>:
 8048920:	ff 25 70 b0 04 08    	jmp    DWORD PTR ds:0x804b070
 8048926:	68 c8 00 00 00       	push   0xc8
 804892b:	e9 50 fe ff ff       	jmp    8048780 <_init+0x24>

08048930 <bind@plt>:
 8048930:	ff 25 74 b0 04 08    	jmp    DWORD PTR ds:0x804b074
 8048936:	68 d0 00 00 00       	push   0xd0
 804893b:	e9 40 fe ff ff       	jmp    8048780 <_init+0x24>

08048940 <fopen@plt>:
 8048940:	ff 25 78 b0 04 08    	jmp    DWORD PTR ds:0x804b078
 8048946:	68 d8 00 00 00       	push   0xd8
 804894b:	e9 30 fe ff ff       	jmp    8048780 <_init+0x24>

08048950 <rand@plt>:
 8048950:	ff 25 7c b0 04 08    	jmp    DWORD PTR ds:0x804b07c
 8048956:	68 e0 00 00 00       	push   0xe0
 804895b:	e9 20 fe ff ff       	jmp    8048780 <_init+0x24>

08048960 <fork@plt>:
 8048960:	ff 25 80 b0 04 08    	jmp    DWORD PTR ds:0x804b080
 8048966:	68 e8 00 00 00       	push   0xe8
 804896b:	e9 10 fe ff ff       	jmp    8048780 <_init+0x24>

08048970 <errx@plt>:
 8048970:	ff 25 84 b0 04 08    	jmp    DWORD PTR ds:0x804b084
 8048976:	68 f0 00 00 00       	push   0xf0
 804897b:	e9 00 fe ff ff       	jmp    8048780 <_init+0x24>

08048980 <htonl@plt>:
 8048980:	ff 25 88 b0 04 08    	jmp    DWORD PTR ds:0x804b088
 8048986:	68 f8 00 00 00       	push   0xf8
 804898b:	e9 f0 fd ff ff       	jmp    8048780 <_init+0x24>

08048990 <listen@plt>:
 8048990:	ff 25 8c b0 04 08    	jmp    DWORD PTR ds:0x804b08c
 8048996:	68 00 01 00 00       	push   0x100
 804899b:	e9 e0 fd ff ff       	jmp    8048780 <_init+0x24>

080489a0 <setuid@plt>:
 80489a0:	ff 25 90 b0 04 08    	jmp    DWORD PTR ds:0x804b090
 80489a6:	68 08 01 00 00       	push   0x108
 80489ab:	e9 d0 fd ff ff       	jmp    8048780 <_init+0x24>

080489b0 <socket@plt>:
 80489b0:	ff 25 94 b0 04 08    	jmp    DWORD PTR ds:0x804b094
 80489b6:	68 10 01 00 00       	push   0x110
 80489bb:	e9 c0 fd ff ff       	jmp    8048780 <_init+0x24>

080489c0 <recv@plt>:
 80489c0:	ff 25 98 b0 04 08    	jmp    DWORD PTR ds:0x804b098
 80489c6:	68 18 01 00 00       	push   0x118
 80489cb:	e9 b0 fd ff ff       	jmp    8048780 <_init+0x24>

080489d0 <close@plt>:
 80489d0:	ff 25 9c b0 04 08    	jmp    DWORD PTR ds:0x804b09c
 80489d6:	68 20 01 00 00       	push   0x120
 80489db:	e9 a0 fd ff ff       	jmp    8048780 <_init+0x24>

080489e0 <send@plt>:
 80489e0:	ff 25 a0 b0 04 08    	jmp    DWORD PTR ds:0x804b0a0
 80489e6:	68 28 01 00 00       	push   0x128
 80489eb:	e9 90 fd ff ff       	jmp    8048780 <_init+0x24>

Disassembly of section .text:

080489f0 <_start>:
 80489f0:	31 ed                	xor    ebp,ebp
 80489f2:	5e                   	pop    esi
 80489f3:	89 e1                	mov    ecx,esp
 80489f5:	83 e4 f0             	and    esp,0xfffffff0
 80489f8:	50                   	push   eax
 80489f9:	54                   	push   esp
 80489fa:	52                   	push   edx
 80489fb:	68 50 93 04 08       	push   0x8049350
 8048a00:	68 e0 92 04 08       	push   0x80492e0
 8048a05:	51                   	push   ecx
 8048a06:	56                   	push   esi
 8048a07:	68 72 8b 04 08       	push   0x8048b72
 8048a0c:	e8 ef fe ff ff       	call   8048900 <__libc_start_main@plt>
 8048a11:	f4                   	hlt    
 8048a12:	66 90                	xchg   ax,ax
 8048a14:	66 90                	xchg   ax,ax
 8048a16:	66 90                	xchg   ax,ax
 8048a18:	66 90                	xchg   ax,ax
 8048a1a:	66 90                	xchg   ax,ax
 8048a1c:	66 90                	xchg   ax,ax
 8048a1e:	66 90                	xchg   ax,ax

08048a20 <__x86.get_pc_thunk.bx>:
 8048a20:	8b 1c 24             	mov    ebx,DWORD PTR [esp]
 8048a23:	c3                   	ret    
 8048a24:	66 90                	xchg   ax,ax
 8048a26:	66 90                	xchg   ax,ax
 8048a28:	66 90                	xchg   ax,ax
 8048a2a:	66 90                	xchg   ax,ax
 8048a2c:	66 90                	xchg   ax,ax
 8048a2e:	66 90                	xchg   ax,ax

08048a30 <deregister_tm_clones>:
 8048a30:	b8 af b0 04 08       	mov    eax,0x804b0af
 8048a35:	2d ac b0 04 08       	sub    eax,0x804b0ac
 8048a3a:	83 f8 06             	cmp    eax,0x6
 8048a3d:	77 02                	ja     8048a41 <deregister_tm_clones+0x11>
 8048a3f:	f3 c3                	repz ret 
 8048a41:	b8 00 00 00 00       	mov    eax,0x0
 8048a46:	85 c0                	test   eax,eax
 8048a48:	74 f5                	je     8048a3f <deregister_tm_clones+0xf>
 8048a4a:	55                   	push   ebp
 8048a4b:	89 e5                	mov    ebp,esp
 8048a4d:	83 ec 18             	sub    esp,0x18
 8048a50:	c7 04 24 ac b0 04 08 	mov    DWORD PTR [esp],0x804b0ac
 8048a57:	ff d0                	call   eax
 8048a59:	c9                   	leave  
 8048a5a:	c3                   	ret    
 8048a5b:	90                   	nop
 8048a5c:	8d 74 26 00          	lea    esi,[esi+eiz*1+0x0]

08048a60 <register_tm_clones>:
 8048a60:	b8 ac b0 04 08       	mov    eax,0x804b0ac
 8048a65:	2d ac b0 04 08       	sub    eax,0x804b0ac
 8048a6a:	c1 f8 02             	sar    eax,0x2
 8048a6d:	89 c2                	mov    edx,eax
 8048a6f:	c1 ea 1f             	shr    edx,0x1f
 8048a72:	01 d0                	add    eax,edx
 8048a74:	d1 f8                	sar    eax,1
 8048a76:	75 02                	jne    8048a7a <register_tm_clones+0x1a>
 8048a78:	f3 c3                	repz ret 
 8048a7a:	ba 00 00 00 00       	mov    edx,0x0
 8048a7f:	85 d2                	test   edx,edx
 8048a81:	74 f5                	je     8048a78 <register_tm_clones+0x18>
 8048a83:	55                   	push   ebp
 8048a84:	89 e5                	mov    ebp,esp
 8048a86:	83 ec 18             	sub    esp,0x18
 8048a89:	89 44 24 04          	mov    DWORD PTR [esp+0x4],eax
 8048a8d:	c7 04 24 ac b0 04 08 	mov    DWORD PTR [esp],0x804b0ac
 8048a94:	ff d2                	call   edx
 8048a96:	c9                   	leave  
 8048a97:	c3                   	ret    
 8048a98:	90                   	nop
 8048a99:	8d b4 26 00 00 00 00 	lea    esi,[esi+eiz*1+0x0]

08048aa0 <__do_global_dtors_aux>:
 8048aa0:	80 3d c0 b0 04 08 00 	cmp    BYTE PTR ds:0x804b0c0,0x0
 8048aa7:	75 13                	jne    8048abc <__do_global_dtors_aux+0x1c>
 8048aa9:	55                   	push   ebp
 8048aaa:	89 e5                	mov    ebp,esp
 8048aac:	83 ec 08             	sub    esp,0x8
 8048aaf:	e8 7c ff ff ff       	call   8048a30 <deregister_tm_clones>
 8048ab4:	c6 05 c0 b0 04 08 01 	mov    BYTE PTR ds:0x804b0c0,0x1
 8048abb:	c9                   	leave  
 8048abc:	f3 c3                	repz ret 
 8048abe:	66 90                	xchg   ax,ax

08048ac0 <frame_dummy>:
 8048ac0:	a1 10 af 04 08       	mov    eax,ds:0x804af10
 8048ac5:	85 c0                	test   eax,eax
 8048ac7:	74 1e                	je     8048ae7 <frame_dummy+0x27>
 8048ac9:	b8 00 00 00 00       	mov    eax,0x0
 8048ace:	85 c0                	test   eax,eax
 8048ad0:	74 15                	je     8048ae7 <frame_dummy+0x27>
 8048ad2:	55                   	push   ebp
 8048ad3:	89 e5                	mov    ebp,esp
 8048ad5:	83 ec 18             	sub    esp,0x18
 8048ad8:	c7 04 24 10 af 04 08 	mov    DWORD PTR [esp],0x804af10
 8048adf:	ff d0                	call   eax
 8048ae1:	c9                   	leave  
 8048ae2:	e9 79 ff ff ff       	jmp    8048a60 <register_tm_clones>
 8048ae7:	e9 74 ff ff ff       	jmp    8048a60 <register_tm_clones>

08048aec <win>:
 8048aec:	55                   	push   ebp
 8048aed:	89 e5                	mov    ebp,esp
 8048aef:	83 ec 28             	sub    esp,0x28
 8048af2:	c7 44 24 04 70 93 04 	mov    DWORD PTR [esp+0x4],0x8049370
 8048af9:	08 
 8048afa:	c7 04 24 72 93 04 08 	mov    DWORD PTR [esp],0x8049372
 8048b01:	e8 3a fe ff ff       	call   8048940 <fopen@plt>
 8048b06:	89 45 f4             	mov    DWORD PTR [ebp-0xc],eax
 8048b09:	83 7d f4 00          	cmp    DWORD PTR [ebp-0xc],0x0
 8048b0d:	75 0c                	jne    8048b1b <win+0x2f>
 8048b0f:	c7 04 24 0a 00 00 00 	mov    DWORD PTR [esp],0xa
 8048b16:	e8 a5 fd ff ff       	call   80488c0 <exit@plt>
 8048b1b:	8b 45 f4             	mov    eax,DWORD PTR [ebp-0xc]
 8048b1e:	89 44 24 08          	mov    DWORD PTR [esp+0x8],eax
 8048b22:	c7 44 24 04 40 00 00 	mov    DWORD PTR [esp+0x4],0x40
 8048b29:	00 
 8048b2a:	c7 04 24 e0 b0 04 08 	mov    DWORD PTR [esp],0x804b0e0
 8048b31:	e8 ba fc ff ff       	call   80487f0 <fgets@plt>
 8048b36:	a3 20 b1 04 08       	mov    ds:0x804b120,eax
 8048b3b:	c9                   	leave  
 8048b3c:	c3                   	ret    

08048b3d <lose>:
 8048b3d:	55                   	push   ebp
 8048b3e:	89 e5                	mov    ebp,esp
 8048b40:	c7 05 20 b1 04 08 76 	mov    DWORD PTR ds:0x804b120,0x8049376
 8048b47:	93 04 08 
 8048b4a:	5d                   	pop    ebp
 8048b4b:	c3                   	ret    

08048b4c <game>:
 8048b4c:	55                   	push   ebp
 8048b4d:	89 e5                	mov    ebp,esp
 8048b4f:	83 ec 68             	sub    esp,0x68
 8048b52:	c7 45 f4 3d 8b 04 08 	mov    DWORD PTR [ebp-0xc],0x8048b3d
 8048b59:	8b 45 08             	mov    eax,DWORD PTR [ebp+0x8]
 8048b5c:	89 44 24 04          	mov    DWORD PTR [esp+0x4],eax
 8048b60:	8d 45 b4             	lea    eax,[ebp-0x4c]
 8048b63:	89 04 24             	mov    DWORD PTR [esp],eax
 8048b66:	e8 15 fd ff ff       	call   8048880 <strcpy@plt>
 8048b6b:	8b 45 f4             	mov    eax,DWORD PTR [ebp-0xc]
 8048b6e:	ff d0                	call   eax
 8048b70:	c9                   	leave  
 8048b71:	c3                   	ret    

08048b72 <main>:
 8048b72:	55                   	push   ebp
 8048b73:	89 e5                	mov    ebp,esp
 8048b75:	83 e4 f0             	and    esp,0xfffffff0
 8048b78:	83 ec 20             	sub    esp,0x20
 8048b7b:	c7 44 24 04 00 00 00 	mov    DWORD PTR [esp+0x4],0x0
 8048b82:	00 
 8048b83:	c7 04 24 ff ff 00 00 	mov    DWORD PTR [esp],0xffff
 8048b8a:	e8 4d 01 00 00       	call   8048cdc <ctf_listen>
 8048b8f:	89 44 24 1c          	mov    DWORD PTR [esp+0x1c],eax
 8048b93:	a1 c4 b0 04 08       	mov    eax,ds:0x804b0c4
 8048b98:	c7 44 24 08 b7 8b 04 	mov    DWORD PTR [esp+0x8],0x8048bb7
 8048b9f:	08 
 8048ba0:	89 44 24 04          	mov    DWORD PTR [esp+0x4],eax
 8048ba4:	8b 44 24 1c          	mov    eax,DWORD PTR [esp+0x1c]
 8048ba8:	89 04 24             	mov    DWORD PTR [esp],eax
 8048bab:	e8 18 03 00 00       	call   8048ec8 <ctf_server>
 8048bb0:	b8 00 00 00 00       	mov    eax,0x0
 8048bb5:	c9                   	leave  
 8048bb6:	c3                   	ret    

08048bb7 <gameProcessing>:
 8048bb7:	55                   	push   ebp
 8048bb8:	89 e5                	mov    ebp,esp
 8048bba:	81 ec 28 01 00 00    	sub    esp,0x128
 8048bc0:	c7 44 24 04 00 01 00 	mov    DWORD PTR [esp+0x4],0x100
 8048bc7:	00 
 8048bc8:	8d 85 f4 fe ff ff    	lea    eax,[ebp-0x10c]
 8048bce:	89 04 24             	mov    DWORD PTR [esp],eax
 8048bd1:	e8 0a fc ff ff       	call   80487e0 <bzero@plt>
 8048bd6:	c7 44 24 0c 00 00 00 	mov    DWORD PTR [esp+0xc],0x0
 8048bdd:	00 
 8048bde:	c7 44 24 08 2e 00 00 	mov    DWORD PTR [esp+0x8],0x2e
 8048be5:	00 
 8048be6:	c7 44 24 04 90 93 04 	mov    DWORD PTR [esp+0x4],0x8049390
 8048bed:	08 
 8048bee:	8b 45 08             	mov    eax,DWORD PTR [ebp+0x8]
 8048bf1:	89 04 24             	mov    DWORD PTR [esp],eax
 8048bf4:	e8 e7 fd ff ff       	call   80489e0 <send@plt>
 8048bf9:	83 f8 ff             	cmp    eax,0xffffffff
 8048bfc:	75 0c                	jne    8048c0a <gameProcessing+0x53>
 8048bfe:	c7 04 24 bf 93 04 08 	mov    DWORD PTR [esp],0x80493bf
 8048c05:	e8 56 fc ff ff       	call   8048860 <perror@plt>
 8048c0a:	c7 44 24 0c 00 00 00 	mov    DWORD PTR [esp+0xc],0x0
 8048c11:	00 
 8048c12:	c7 44 24 08 ff 00 00 	mov    DWORD PTR [esp+0x8],0xff
 8048c19:	00 
 8048c1a:	8d 85 f4 fe ff ff    	lea    eax,[ebp-0x10c]
 8048c20:	89 44 24 04          	mov    DWORD PTR [esp+0x4],eax
 8048c24:	8b 45 08             	mov    eax,DWORD PTR [ebp+0x8]
 8048c27:	89 04 24             	mov    DWORD PTR [esp],eax
 8048c2a:	e8 91 fd ff ff       	call   80489c0 <recv@plt>
 8048c2f:	89 45 f4             	mov    DWORD PTR [ebp-0xc],eax
 8048c32:	83 7d f4 ff          	cmp    DWORD PTR [ebp-0xc],0xffffffff
 8048c36:	75 18                	jne    8048c50 <gameProcessing+0x99>
 8048c38:	c7 04 24 c4 93 04 08 	mov    DWORD PTR [esp],0x80493c4
 8048c3f:	e8 1c fc ff ff       	call   8048860 <perror@plt>
 8048c44:	c7 04 24 01 00 00 00 	mov    DWORD PTR [esp],0x1
 8048c4b:	e8 70 fc ff ff       	call   80488c0 <exit@plt>
 8048c50:	8d 95 f4 fe ff ff    	lea    edx,[ebp-0x10c]
 8048c56:	8b 45 f4             	mov    eax,DWORD PTR [ebp-0xc]
 8048c59:	01 d0                	add    eax,edx
 8048c5b:	c6 00 00             	mov    BYTE PTR [eax],0x0
 8048c5e:	8d 85 f4 fe ff ff    	lea    eax,[ebp-0x10c]
 8048c64:	89 04 24             	mov    DWORD PTR [esp],eax
 8048c67:	e8 e0 fe ff ff       	call   8048b4c <game>
 8048c6c:	a1 20 b1 04 08       	mov    eax,ds:0x804b120
 8048c71:	c7 44 24 0c 00 00 00 	mov    DWORD PTR [esp+0xc],0x0
 8048c78:	00 
 8048c79:	c7 44 24 08 16 00 00 	mov    DWORD PTR [esp+0x8],0x16
 8048c80:	00 
 8048c81:	89 44 24 04          	mov    DWORD PTR [esp+0x4],eax
 8048c85:	8b 45 08             	mov    eax,DWORD PTR [ebp+0x8]
 8048c88:	89 04 24             	mov    DWORD PTR [esp],eax
 8048c8b:	e8 50 fd ff ff       	call   80489e0 <send@plt>
 8048c90:	83 f8 ff             	cmp    eax,0xffffffff
 8048c93:	75 0c                	jne    8048ca1 <gameProcessing+0xea>
 8048c95:	c7 04 24 bf 93 04 08 	mov    DWORD PTR [esp],0x80493bf
 8048c9c:	e8 bf fb ff ff       	call   8048860 <perror@plt>
 8048ca1:	c7 44 24 0c 00 00 00 	mov    DWORD PTR [esp+0xc],0x0
 8048ca8:	00 
 8048ca9:	c7 44 24 08 01 00 00 	mov    DWORD PTR [esp+0x8],0x1
 8048cb0:	00 
 8048cb1:	c7 44 24 04 c9 93 04 	mov    DWORD PTR [esp+0x4],0x80493c9
 8048cb8:	08 
 8048cb9:	8b 45 08             	mov    eax,DWORD PTR [ebp+0x8]
 8048cbc:	89 04 24             	mov    DWORD PTR [esp],eax
 8048cbf:	e8 1c fd ff ff       	call   80489e0 <send@plt>
 8048cc4:	83 f8 ff             	cmp    eax,0xffffffff
 8048cc7:	75 0c                	jne    8048cd5 <gameProcessing+0x11e>
 8048cc9:	c7 04 24 bf 93 04 08 	mov    DWORD PTR [esp],0x80493bf
 8048cd0:	e8 8b fb ff ff       	call   8048860 <perror@plt>
 8048cd5:	b8 00 00 00 00       	mov    eax,0x0
 8048cda:	c9                   	leave  
 8048cdb:	c3                   	ret    

08048cdc <ctf_listen>:
 8048cdc:	55                   	push   ebp
 8048cdd:	89 e5                	mov    ebp,esp
 8048cdf:	83 ec 58             	sub    esp,0x58
 8048ce2:	8b 45 08             	mov    eax,DWORD PTR [ebp+0x8]
 8048ce5:	66 89 45 d4          	mov    WORD PTR [ebp-0x2c],ax
 8048ce9:	65 a1 14 00 00 00    	mov    eax,gs:0x14
 8048cef:	89 45 f4             	mov    DWORD PTR [ebp-0xc],eax
 8048cf2:	31 c0                	xor    eax,eax
 8048cf4:	c7 45 d8 01 00 00 00 	mov    DWORD PTR [ebp-0x28],0x1
 8048cfb:	c7 45 e0 02 00 00 00 	mov    DWORD PTR [ebp-0x20],0x2
 8048d02:	8b 45 e0             	mov    eax,DWORD PTR [ebp-0x20]
 8048d05:	66 89 45 e4          	mov    WORD PTR [ebp-0x1c],ax
 8048d09:	0f b7 45 d4          	movzx  eax,WORD PTR [ebp-0x2c]
 8048d0d:	89 04 24             	mov    DWORD PTR [esp],eax
 8048d10:	e8 2b fb ff ff       	call   8048840 <htons@plt>
 8048d15:	66 89 45 e6          	mov    WORD PTR [ebp-0x1a],ax
 8048d19:	c7 04 24 00 00 00 00 	mov    DWORD PTR [esp],0x0
 8048d20:	e8 5b fc ff ff       	call   8048980 <htonl@plt>
 8048d25:	89 45 e8             	mov    DWORD PTR [ebp-0x18],eax
 8048d28:	c7 44 24 04 01 00 00 	mov    DWORD PTR [esp+0x4],0x1
 8048d2f:	00 
 8048d30:	c7 04 24 11 00 00 00 	mov    DWORD PTR [esp],0x11
 8048d37:	e8 d4 fa ff ff       	call   8048810 <signal@plt>
 8048d3c:	83 f8 ff             	cmp    eax,0xffffffff
 8048d3f:	75 14                	jne    8048d55 <ctf_listen+0x79>
 8048d41:	c7 44 24 04 cc 93 04 	mov    DWORD PTR [esp+0x4],0x80493cc
 8048d48:	08 
 8048d49:	c7 04 24 ff ff ff ff 	mov    DWORD PTR [esp],0xffffffff
 8048d50:	e8 1b fc ff ff       	call   8048970 <errx@plt>
 8048d55:	81 7d 0c ff 00 00 00 	cmp    DWORD PTR [ebp+0xc],0xff
 8048d5c:	75 1f                	jne    8048d7d <ctf_listen+0xa1>
 8048d5e:	8b 45 0c             	mov    eax,DWORD PTR [ebp+0xc]
 8048d61:	89 44 24 08          	mov    DWORD PTR [esp+0x8],eax
 8048d65:	c7 44 24 04 03 00 00 	mov    DWORD PTR [esp+0x4],0x3
 8048d6c:	00 
 8048d6d:	8b 45 e0             	mov    eax,DWORD PTR [ebp-0x20]
 8048d70:	89 04 24             	mov    DWORD PTR [esp],eax
 8048d73:	e8 38 fc ff ff       	call   80489b0 <socket@plt>
 8048d78:	89 45 dc             	mov    DWORD PTR [ebp-0x24],eax
 8048d7b:	eb 6a                	jmp    8048de7 <ctf_listen+0x10b>
 8048d7d:	81 7d 0c 84 00 00 00 	cmp    DWORD PTR [ebp+0xc],0x84
 8048d84:	75 1f                	jne    8048da5 <ctf_listen+0xc9>
 8048d86:	8b 45 0c             	mov    eax,DWORD PTR [ebp+0xc]
 8048d89:	89 44 24 08          	mov    DWORD PTR [esp+0x8],eax
 8048d8d:	c7 44 24 04 05 00 00 	mov    DWORD PTR [esp+0x4],0x5
 8048d94:	00 
 8048d95:	8b 45 e0             	mov    eax,DWORD PTR [ebp-0x20]
 8048d98:	89 04 24             	mov    DWORD PTR [esp],eax
 8048d9b:	e8 10 fc ff ff       	call   80489b0 <socket@plt>
 8048da0:	89 45 dc             	mov    DWORD PTR [ebp-0x24],eax
 8048da3:	eb 42                	jmp    8048de7 <ctf_listen+0x10b>
 8048da5:	83 7d 0c 11          	cmp    DWORD PTR [ebp+0xc],0x11
 8048da9:	75 1f                	jne    8048dca <ctf_listen+0xee>
 8048dab:	8b 45 0c             	mov    eax,DWORD PTR [ebp+0xc]
 8048dae:	89 44 24 08          	mov    DWORD PTR [esp+0x8],eax
 8048db2:	c7 44 24 04 02 00 00 	mov    DWORD PTR [esp+0x4],0x2
 8048db9:	00 
 8048dba:	8b 45 e0             	mov    eax,DWORD PTR [ebp-0x20]
 8048dbd:	89 04 24             	mov    DWORD PTR [esp],eax
 8048dc0:	e8 eb fb ff ff       	call   80489b0 <socket@plt>
 8048dc5:	89 45 dc             	mov    DWORD PTR [ebp-0x24],eax
 8048dc8:	eb 1d                	jmp    8048de7 <ctf_listen+0x10b>
 8048dca:	8b 45 0c             	mov    eax,DWORD PTR [ebp+0xc]
 8048dcd:	89 44 24 08          	mov    DWORD PTR [esp+0x8],eax
 8048dd1:	c7 44 24 04 01 00 00 	mov    DWORD PTR [esp+0x4],0x1
 8048dd8:	00 
 8048dd9:	8b 45 e0             	mov    eax,DWORD PTR [ebp-0x20]
 8048ddc:	89 04 24             	mov    DWORD PTR [esp],eax
 8048ddf:	e8 cc fb ff ff       	call   80489b0 <socket@plt>
 8048de4:	89 45 dc             	mov    DWORD PTR [ebp-0x24],eax
 8048de7:	83 7d dc ff          	cmp    DWORD PTR [ebp-0x24],0xffffffff
 8048deb:	75 14                	jne    8048e01 <ctf_listen+0x125>
 8048ded:	c7 44 24 04 ea 93 04 	mov    DWORD PTR [esp+0x4],0x80493ea
 8048df4:	08 
 8048df5:	c7 04 24 ff ff ff ff 	mov    DWORD PTR [esp],0xffffffff
 8048dfc:	e8 6f fb ff ff       	call   8048970 <errx@plt>
 8048e01:	c7 44 24 10 04 00 00 	mov    DWORD PTR [esp+0x10],0x4
 8048e08:	00 
 8048e09:	8d 45 d8             	lea    eax,[ebp-0x28]
 8048e0c:	89 44 24 0c          	mov    DWORD PTR [esp+0xc],eax
 8048e10:	c7 44 24 08 02 00 00 	mov    DWORD PTR [esp+0x8],0x2
 8048e17:	00 
 8048e18:	c7 44 24 04 01 00 00 	mov    DWORD PTR [esp+0x4],0x1
 8048e1f:	00 
 8048e20:	8b 45 dc             	mov    eax,DWORD PTR [ebp-0x24]
 8048e23:	89 04 24             	mov    DWORD PTR [esp],eax
 8048e26:	e8 65 f9 ff ff       	call   8048790 <setsockopt@plt>
 8048e2b:	83 f8 ff             	cmp    eax,0xffffffff
 8048e2e:	75 14                	jne    8048e44 <ctf_listen+0x168>
 8048e30:	c7 44 24 04 04 94 04 	mov    DWORD PTR [esp+0x4],0x8049404
 8048e37:	08 
 8048e38:	c7 04 24 ff ff ff ff 	mov    DWORD PTR [esp],0xffffffff
 8048e3f:	e8 2c fb ff ff       	call   8048970 <errx@plt>
 8048e44:	c7 44 24 08 10 00 00 	mov    DWORD PTR [esp+0x8],0x10
 8048e4b:	00 
 8048e4c:	8d 45 e4             	lea    eax,[ebp-0x1c]
 8048e4f:	89 44 24 04          	mov    DWORD PTR [esp+0x4],eax
 8048e53:	8b 45 dc             	mov    eax,DWORD PTR [ebp-0x24]
 8048e56:	89 04 24             	mov    DWORD PTR [esp],eax
 8048e59:	e8 d2 fa ff ff       	call   8048930 <bind@plt>
 8048e5e:	83 f8 ff             	cmp    eax,0xffffffff
 8048e61:	75 14                	jne    8048e77 <ctf_listen+0x19b>
 8048e63:	c7 44 24 04 26 94 04 	mov    DWORD PTR [esp+0x4],0x8049426
 8048e6a:	08 
 8048e6b:	c7 04 24 ff ff ff ff 	mov    DWORD PTR [esp],0xffffffff
 8048e72:	e8 f9 fa ff ff       	call   8048970 <errx@plt>
 8048e77:	83 7d 0c 11          	cmp    DWORD PTR [ebp+0xc],0x11
 8048e7b:	74 35                	je     8048eb2 <ctf_listen+0x1d6>
 8048e7d:	81 7d 0c ff 00 00 00 	cmp    DWORD PTR [ebp+0xc],0xff
 8048e84:	74 2c                	je     8048eb2 <ctf_listen+0x1d6>
 8048e86:	c7 44 24 04 10 00 00 	mov    DWORD PTR [esp+0x4],0x10
 8048e8d:	00 
 8048e8e:	8b 45 dc             	mov    eax,DWORD PTR [ebp-0x24]
 8048e91:	89 04 24             	mov    DWORD PTR [esp],eax
 8048e94:	e8 f7 fa ff ff       	call   8048990 <listen@plt>
 8048e99:	83 f8 ff             	cmp    eax,0xffffffff
 8048e9c:	75 14                	jne    8048eb2 <ctf_listen+0x1d6>
 8048e9e:	c7 44 24 04 3c 94 04 	mov    DWORD PTR [esp+0x4],0x804943c
 8048ea5:	08 
 8048ea6:	c7 04 24 ff ff ff ff 	mov    DWORD PTR [esp],0xffffffff
 8048ead:	e8 be fa ff ff       	call   8048970 <errx@plt>
 8048eb2:	8b 45 dc             	mov    eax,DWORD PTR [ebp-0x24]
 8048eb5:	8b 55 f4             	mov    edx,DWORD PTR [ebp-0xc]
 8048eb8:	65 33 15 14 00 00 00 	xor    edx,DWORD PTR gs:0x14
 8048ebf:	74 05                	je     8048ec6 <ctf_listen+0x1ea>
 8048ec1:	e8 6a f9 ff ff       	call   8048830 <__stack_chk_fail@plt>
 8048ec6:	c9                   	leave  
 8048ec7:	c3                   	ret    

08048ec8 <ctf_server>:
 8048ec8:	55                   	push   ebp
 8048ec9:	89 e5                	mov    ebp,esp
 8048ecb:	83 ec 28             	sub    esp,0x28
 8048ece:	c7 04 24 00 00 00 00 	mov    DWORD PTR [esp],0x0
 8048ed5:	e8 26 f9 ff ff       	call   8048800 <time@plt>
 8048eda:	89 04 24             	mov    DWORD PTR [esp],eax
 8048edd:	e8 fe f9 ff ff       	call   80488e0 <srand@plt>
 8048ee2:	c7 44 24 08 00 00 00 	mov    DWORD PTR [esp+0x8],0x0
 8048ee9:	00 
 8048eea:	c7 44 24 04 00 00 00 	mov    DWORD PTR [esp+0x4],0x0
 8048ef1:	00 
 8048ef2:	8b 45 08             	mov    eax,DWORD PTR [ebp+0x8]
 8048ef5:	89 04 24             	mov    DWORD PTR [esp],eax
 8048ef8:	e8 73 f9 ff ff       	call   8048870 <accept@plt>
 8048efd:	89 45 ec             	mov    DWORD PTR [ebp-0x14],eax
 8048f00:	83 7d ec ff          	cmp    DWORD PTR [ebp-0x14],0xffffffff
 8048f04:	74 5e                	je     8048f64 <ctf_server+0x9c>
 8048f06:	8b 45 ec             	mov    eax,DWORD PTR [ebp-0x14]
 8048f09:	89 04 24             	mov    DWORD PTR [esp],eax
 8048f0c:	e8 2a 01 00 00       	call   804903b <ctf_randfd>
 8048f11:	89 45 ec             	mov    DWORD PTR [ebp-0x14],eax
 8048f14:	e8 47 fa ff ff       	call   8048960 <fork@plt>
 8048f19:	89 45 f0             	mov    DWORD PTR [ebp-0x10],eax
 8048f1c:	83 7d f0 ff          	cmp    DWORD PTR [ebp-0x10],0xffffffff
 8048f20:	74 45                	je     8048f67 <ctf_server+0x9f>
 8048f22:	83 7d f0 00          	cmp    DWORD PTR [ebp-0x10],0x0
 8048f26:	74 0d                	je     8048f35 <ctf_server+0x6d>
 8048f28:	8b 45 ec             	mov    eax,DWORD PTR [ebp-0x14]
 8048f2b:	89 04 24             	mov    DWORD PTR [esp],eax
 8048f2e:	e8 9d fa ff ff       	call   80489d0 <close@plt>
 8048f33:	eb ad                	jmp    8048ee2 <ctf_server+0x1a>
 8048f35:	8b 45 08             	mov    eax,DWORD PTR [ebp+0x8]
 8048f38:	89 04 24             	mov    DWORD PTR [esp],eax
 8048f3b:	e8 90 fa ff ff       	call   80489d0 <close@plt>
 8048f40:	8b 45 ec             	mov    eax,DWORD PTR [ebp-0x14]
 8048f43:	89 04 24             	mov    DWORD PTR [esp],eax
 8048f46:	8b 45 10             	mov    eax,DWORD PTR [ebp+0x10]
 8048f49:	ff d0                	call   eax
 8048f4b:	89 45 f4             	mov    DWORD PTR [ebp-0xc],eax
 8048f4e:	8b 45 ec             	mov    eax,DWORD PTR [ebp-0x14]
 8048f51:	89 04 24             	mov    DWORD PTR [esp],eax
 8048f54:	e8 77 fa ff ff       	call   80489d0 <close@plt>
 8048f59:	8b 45 f4             	mov    eax,DWORD PTR [ebp-0xc]
 8048f5c:	89 04 24             	mov    DWORD PTR [esp],eax
 8048f5f:	e8 5c f9 ff ff       	call   80488c0 <exit@plt>
 8048f64:	90                   	nop
 8048f65:	eb 01                	jmp    8048f68 <ctf_server+0xa0>
 8048f67:	90                   	nop
 8048f68:	e9 75 ff ff ff       	jmp    8048ee2 <ctf_server+0x1a>

08048f6d <ctf_privdrop>:
 8048f6d:	55                   	push   ebp
 8048f6e:	89 e5                	mov    ebp,esp
 8048f70:	83 ec 28             	sub    esp,0x28
 8048f73:	8b 45 08             	mov    eax,DWORD PTR [ebp+0x8]
 8048f76:	89 04 24             	mov    DWORD PTR [esp],eax
 8048f79:	e8 22 f8 ff ff       	call   80487a0 <getpwnam@plt>
 8048f7e:	89 45 f4             	mov    DWORD PTR [ebp-0xc],eax
 8048f81:	83 7d f4 00          	cmp    DWORD PTR [ebp-0xc],0x0
 8048f85:	75 14                	jne    8048f9b <ctf_privdrop+0x2e>
 8048f87:	c7 44 24 04 57 94 04 	mov    DWORD PTR [esp+0x4],0x8049457
 8048f8e:	08 
 8048f8f:	c7 04 24 ff ff ff ff 	mov    DWORD PTR [esp],0xffffffff
 8048f96:	e8 d5 f9 ff ff       	call   8048970 <errx@plt>
 8048f9b:	c7 44 24 04 00 00 00 	mov    DWORD PTR [esp+0x4],0x0
 8048fa2:	00 
 8048fa3:	c7 04 24 00 00 00 00 	mov    DWORD PTR [esp],0x0
 8048faa:	e8 a1 f8 ff ff       	call   8048850 <setgroups@plt>
 8048faf:	85 c0                	test   eax,eax
 8048fb1:	79 14                	jns    8048fc7 <ctf_privdrop+0x5a>
 8048fb3:	c7 44 24 04 6b 94 04 	mov    DWORD PTR [esp+0x4],0x804946b
 8048fba:	08 
 8048fbb:	c7 04 24 ff ff ff ff 	mov    DWORD PTR [esp],0xffffffff
 8048fc2:	e8 a9 f9 ff ff       	call   8048970 <errx@plt>
 8048fc7:	8b 45 f4             	mov    eax,DWORD PTR [ebp-0xc]
 8048fca:	8b 40 0c             	mov    eax,DWORD PTR [eax+0xc]
 8048fcd:	89 04 24             	mov    DWORD PTR [esp],eax
 8048fd0:	e8 bb f8 ff ff       	call   8048890 <setgid@plt>
 8048fd5:	85 c0                	test   eax,eax
 8048fd7:	79 14                	jns    8048fed <ctf_privdrop+0x80>
 8048fd9:	c7 44 24 04 89 94 04 	mov    DWORD PTR [esp+0x4],0x8049489
 8048fe0:	08 
 8048fe1:	c7 04 24 ff ff ff ff 	mov    DWORD PTR [esp],0xffffffff
 8048fe8:	e8 83 f9 ff ff       	call   8048970 <errx@plt>
 8048fed:	8b 45 f4             	mov    eax,DWORD PTR [ebp-0xc]
 8048ff0:	8b 40 08             	mov    eax,DWORD PTR [eax+0x8]
 8048ff3:	89 04 24             	mov    DWORD PTR [esp],eax
 8048ff6:	e8 a5 f9 ff ff       	call   80489a0 <setuid@plt>
 8048ffb:	85 c0                	test   eax,eax
 8048ffd:	79 14                	jns    8049013 <ctf_privdrop+0xa6>
 8048fff:	c7 44 24 04 9e 94 04 	mov    DWORD PTR [esp+0x4],0x804949e
 8049006:	08 
 8049007:	c7 04 24 ff ff ff ff 	mov    DWORD PTR [esp],0xffffffff
 804900e:	e8 5d f9 ff ff       	call   8048970 <errx@plt>
 8049013:	8b 45 f4             	mov    eax,DWORD PTR [ebp-0xc]
 8049016:	8b 40 14             	mov    eax,DWORD PTR [eax+0x14]
 8049019:	89 04 24             	mov    DWORD PTR [esp],eax
 804901c:	e8 ff f7 ff ff       	call   8048820 <chdir@plt>
 8049021:	85 c0                	test   eax,eax
 8049023:	79 14                	jns    8049039 <ctf_privdrop+0xcc>
 8049025:	c7 44 24 04 b4 94 04 	mov    DWORD PTR [esp+0x4],0x80494b4
 804902c:	08 
 804902d:	c7 04 24 ff ff ff ff 	mov    DWORD PTR [esp],0xffffffff
 8049034:	e8 37 f9 ff ff       	call   8048970 <errx@plt>
 8049039:	c9                   	leave  
 804903a:	c3                   	ret    

0804903b <ctf_randfd>:
 804903b:	55                   	push   ebp
 804903c:	89 e5                	mov    ebp,esp
 804903e:	83 ec 28             	sub    esp,0x28
 8049041:	e8 5a f8 ff ff       	call   80488a0 <getdtablesize@plt>
 8049046:	89 45 f0             	mov    DWORD PTR [ebp-0x10],eax
 8049049:	c7 44 24 04 00 00 00 	mov    DWORD PTR [esp+0x4],0x0
 8049050:	00 
 8049051:	c7 04 24 d7 94 04 08 	mov    DWORD PTR [esp],0x80494d7
 8049058:	e8 73 f8 ff ff       	call   80488d0 <open@plt>
 804905d:	89 45 f4             	mov    DWORD PTR [ebp-0xc],eax
 8049060:	c7 45 ec 00 00 00 00 	mov    DWORD PTR [ebp-0x14],0x0
 8049067:	83 7d f4 00          	cmp    DWORD PTR [ebp-0xc],0x0
 804906b:	79 4a                	jns    80490b7 <ctf_randfd+0x7c>
 804906d:	eb 12                	jmp    8049081 <ctf_randfd+0x46>
 804906f:	e8 dc f8 ff ff       	call   8048950 <rand@plt>
 8049074:	89 c2                	mov    edx,eax
 8049076:	c1 fa 1f             	sar    edx,0x1f
 8049079:	f7 7d f0             	idiv   DWORD PTR [ebp-0x10]
 804907c:	89 d0                	mov    eax,edx
 804907e:	89 45 ec             	mov    DWORD PTR [ebp-0x14],eax
 8049081:	8b 45 ec             	mov    eax,DWORD PTR [ebp-0x14]
 8049084:	3b 45 08             	cmp    eax,DWORD PTR [ebp+0x8]
 8049087:	7c e6                	jl     804906f <ctf_randfd+0x34>
 8049089:	eb 40                	jmp    80490cb <ctf_randfd+0x90>
 804908b:	c7 44 24 08 02 00 00 	mov    DWORD PTR [esp+0x8],0x2
 8049092:	00 
 8049093:	8d 45 ec             	lea    eax,[ebp-0x14]
 8049096:	89 44 24 04          	mov    DWORD PTR [esp+0x4],eax
 804909a:	8b 45 f4             	mov    eax,DWORD PTR [ebp-0xc]
 804909d:	89 04 24             	mov    DWORD PTR [esp],eax
 80490a0:	e8 1b f7 ff ff       	call   80487c0 <read@plt>
 80490a5:	8b 45 ec             	mov    eax,DWORD PTR [ebp-0x14]
 80490a8:	89 c2                	mov    edx,eax
 80490aa:	c1 fa 1f             	sar    edx,0x1f
 80490ad:	f7 7d f0             	idiv   DWORD PTR [ebp-0x10]
 80490b0:	89 d0                	mov    eax,edx
 80490b2:	89 45 ec             	mov    DWORD PTR [ebp-0x14],eax
 80490b5:	eb 01                	jmp    80490b8 <ctf_randfd+0x7d>
 80490b7:	90                   	nop
 80490b8:	8b 45 ec             	mov    eax,DWORD PTR [ebp-0x14]
 80490bb:	3b 45 08             	cmp    eax,DWORD PTR [ebp+0x8]
 80490be:	7c cb                	jl     804908b <ctf_randfd+0x50>
 80490c0:	8b 45 f4             	mov    eax,DWORD PTR [ebp-0xc]
 80490c3:	89 04 24             	mov    DWORD PTR [esp],eax
 80490c6:	e8 05 f9 ff ff       	call   80489d0 <close@plt>
 80490cb:	8b 45 ec             	mov    eax,DWORD PTR [ebp-0x14]
 80490ce:	89 44 24 04          	mov    DWORD PTR [esp+0x4],eax
 80490d2:	8b 45 08             	mov    eax,DWORD PTR [ebp+0x8]
 80490d5:	89 04 24             	mov    DWORD PTR [esp],eax
 80490d8:	e8 d3 f6 ff ff       	call   80487b0 <dup2@plt>
 80490dd:	83 f8 ff             	cmp    eax,0xffffffff
 80490e0:	75 08                	jne    80490ea <ctf_randfd+0xaf>
 80490e2:	8b 45 08             	mov    eax,DWORD PTR [ebp+0x8]
 80490e5:	89 45 ec             	mov    DWORD PTR [ebp-0x14],eax
 80490e8:	eb 0b                	jmp    80490f5 <ctf_randfd+0xba>
 80490ea:	8b 45 08             	mov    eax,DWORD PTR [ebp+0x8]
 80490ed:	89 04 24             	mov    DWORD PTR [esp],eax
 80490f0:	e8 db f8 ff ff       	call   80489d0 <close@plt>
 80490f5:	8b 45 ec             	mov    eax,DWORD PTR [ebp-0x14]
 80490f8:	c9                   	leave  
 80490f9:	c3                   	ret    

080490fa <ctf_recv>:
 80490fa:	55                   	push   ebp
 80490fb:	89 e5                	mov    ebp,esp
 80490fd:	83 ec 28             	sub    esp,0x28
 8049100:	c7 45 f4 00 00 00 00 	mov    DWORD PTR [ebp-0xc],0x0
 8049107:	8b 45 10             	mov    eax,DWORD PTR [ebp+0x10]
 804910a:	89 45 f0             	mov    DWORD PTR [ebp-0x10],eax
 804910d:	83 7d 0c 00          	cmp    DWORD PTR [ebp+0xc],0x0
 8049111:	74 4c                	je     804915f <ctf_recv+0x65>
 8049113:	83 7d 10 00          	cmp    DWORD PTR [ebp+0x10],0x0
 8049117:	74 46                	je     804915f <ctf_recv+0x65>
 8049119:	eb 3e                	jmp    8049159 <ctf_recv+0x5f>
 804911b:	8b 45 f0             	mov    eax,DWORD PTR [ebp-0x10]
 804911e:	c7 44 24 0c 00 00 00 	mov    DWORD PTR [esp+0xc],0x0
 8049125:	00 
 8049126:	89 44 24 08          	mov    DWORD PTR [esp+0x8],eax
 804912a:	8b 45 0c             	mov    eax,DWORD PTR [ebp+0xc]
 804912d:	89 44 24 04          	mov    DWORD PTR [esp+0x4],eax
 8049131:	8b 45 08             	mov    eax,DWORD PTR [ebp+0x8]
 8049134:	89 04 24             	mov    DWORD PTR [esp],eax
 8049137:	e8 84 f8 ff ff       	call   80489c0 <recv@plt>
 804913c:	89 45 f4             	mov    DWORD PTR [ebp-0xc],eax
 804913f:	83 7d f4 00          	cmp    DWORD PTR [ebp-0xc],0x0
 8049143:	7f 0e                	jg     8049153 <ctf_recv+0x59>
 8049145:	c7 04 24 e4 94 04 08 	mov    DWORD PTR [esp],0x80494e4
 804914c:	e8 cf f7 ff ff       	call   8048920 <warnx@plt>
 8049151:	eb 0c                	jmp    804915f <ctf_recv+0x65>
 8049153:	8b 45 f4             	mov    eax,DWORD PTR [ebp-0xc]
 8049156:	29 45 f0             	sub    DWORD PTR [ebp-0x10],eax
 8049159:	83 7d f0 00          	cmp    DWORD PTR [ebp-0x10],0x0
 804915d:	7f bc                	jg     804911b <ctf_recv+0x21>
 804915f:	8b 45 f0             	mov    eax,DWORD PTR [ebp-0x10]
 8049162:	8b 55 10             	mov    edx,DWORD PTR [ebp+0x10]
 8049165:	89 d1                	mov    ecx,edx
 8049167:	29 c1                	sub    ecx,eax
 8049169:	89 c8                	mov    eax,ecx
 804916b:	c9                   	leave  
 804916c:	c3                   	ret    

0804916d <ctf_recvuntil>:
 804916d:	55                   	push   ebp
 804916e:	89 e5                	mov    ebp,esp
 8049170:	83 ec 38             	sub    esp,0x38
 8049173:	8b 45 14             	mov    eax,DWORD PTR [ebp+0x14]
 8049176:	88 45 e4             	mov    BYTE PTR [ebp-0x1c],al
 8049179:	c7 45 f0 00 00 00 00 	mov    DWORD PTR [ebp-0x10],0x0
 8049180:	c7 45 f4 00 00 00 00 	mov    DWORD PTR [ebp-0xc],0x0
 8049187:	83 7d 0c 00          	cmp    DWORD PTR [ebp+0xc],0x0
 804918b:	74 6e                	je     80491fb <ctf_recvuntil+0x8e>
 804918d:	83 7d 10 00          	cmp    DWORD PTR [ebp+0x10],0x0
 8049191:	74 68                	je     80491fb <ctf_recvuntil+0x8e>
 8049193:	c7 45 f0 00 00 00 00 	mov    DWORD PTR [ebp-0x10],0x0
 804919a:	eb 54                	jmp    80491f0 <ctf_recvuntil+0x83>
 804919c:	c7 44 24 0c 00 00 00 	mov    DWORD PTR [esp+0xc],0x0
 80491a3:	00 
 80491a4:	c7 44 24 08 01 00 00 	mov    DWORD PTR [esp+0x8],0x1
 80491ab:	00 
 80491ac:	8d 45 ef             	lea    eax,[ebp-0x11]
 80491af:	89 44 24 04          	mov    DWORD PTR [esp+0x4],eax
 80491b3:	8b 45 08             	mov    eax,DWORD PTR [ebp+0x8]
 80491b6:	89 04 24             	mov    DWORD PTR [esp],eax
 80491b9:	e8 02 f8 ff ff       	call   80489c0 <recv@plt>
 80491be:	89 45 f4             	mov    DWORD PTR [ebp-0xc],eax
 80491c1:	83 7d f4 00          	cmp    DWORD PTR [ebp-0xc],0x0
 80491c5:	7f 0e                	jg     80491d5 <ctf_recvuntil+0x68>
 80491c7:	c7 04 24 e4 94 04 08 	mov    DWORD PTR [esp],0x80494e4
 80491ce:	e8 4d f7 ff ff       	call   8048920 <warnx@plt>
 80491d3:	eb 26                	jmp    80491fb <ctf_recvuntil+0x8e>
 80491d5:	8b 45 f0             	mov    eax,DWORD PTR [ebp-0x10]
 80491d8:	8b 55 0c             	mov    edx,DWORD PTR [ebp+0xc]
 80491db:	01 c2                	add    edx,eax
 80491dd:	0f b6 45 ef          	movzx  eax,BYTE PTR [ebp-0x11]
 80491e1:	88 02                	mov    BYTE PTR [edx],al
 80491e3:	0f b6 45 ef          	movzx  eax,BYTE PTR [ebp-0x11]
 80491e7:	3a 45 e4             	cmp    al,BYTE PTR [ebp-0x1c]
 80491ea:	74 0e                	je     80491fa <ctf_recvuntil+0x8d>
 80491ec:	83 45 f0 01          	add    DWORD PTR [ebp-0x10],0x1
 80491f0:	8b 45 f0             	mov    eax,DWORD PTR [ebp-0x10]
 80491f3:	3b 45 10             	cmp    eax,DWORD PTR [ebp+0x10]
 80491f6:	72 a4                	jb     804919c <ctf_recvuntil+0x2f>
 80491f8:	eb 01                	jmp    80491fb <ctf_recvuntil+0x8e>
 80491fa:	90                   	nop
 80491fb:	8b 45 f0             	mov    eax,DWORD PTR [ebp-0x10]
 80491fe:	c9                   	leave  
 80491ff:	c3                   	ret    

08049200 <ctf_send>:
 8049200:	55                   	push   ebp
 8049201:	89 e5                	mov    ebp,esp
 8049203:	83 ec 28             	sub    esp,0x28
 8049206:	8b 45 0c             	mov    eax,DWORD PTR [ebp+0xc]
 8049209:	89 04 24             	mov    DWORD PTR [esp],eax
 804920c:	e8 df f6 ff ff       	call   80488f0 <strlen@plt>
 8049211:	89 45 f0             	mov    DWORD PTR [ebp-0x10],eax
 8049214:	c7 45 ec 00 00 00 00 	mov    DWORD PTR [ebp-0x14],0x0
 804921b:	c7 45 f4 00 00 00 00 	mov    DWORD PTR [ebp-0xc],0x0
 8049222:	eb 4b                	jmp    804926f <ctf_send+0x6f>
 8049224:	8b 45 ec             	mov    eax,DWORD PTR [ebp-0x14]
 8049227:	8b 55 f0             	mov    edx,DWORD PTR [ebp-0x10]
 804922a:	29 c2                	sub    edx,eax
 804922c:	8b 45 ec             	mov    eax,DWORD PTR [ebp-0x14]
 804922f:	8b 4d 0c             	mov    ecx,DWORD PTR [ebp+0xc]
 8049232:	01 c8                	add    eax,ecx
 8049234:	c7 44 24 0c 00 00 00 	mov    DWORD PTR [esp+0xc],0x0
 804923b:	00 
 804923c:	89 54 24 08          	mov    DWORD PTR [esp+0x8],edx
 8049240:	89 44 24 04          	mov    DWORD PTR [esp+0x4],eax
 8049244:	8b 45 08             	mov    eax,DWORD PTR [ebp+0x8]
 8049247:	89 04 24             	mov    DWORD PTR [esp],eax
 804924a:	e8 91 f7 ff ff       	call   80489e0 <send@plt>
 804924f:	89 45 f4             	mov    DWORD PTR [ebp-0xc],eax
 8049252:	83 7d f4 00          	cmp    DWORD PTR [ebp-0xc],0x0
 8049256:	7f 11                	jg     8049269 <ctf_send+0x69>
 8049258:	c7 04 24 05 95 04 08 	mov    DWORD PTR [esp],0x8049505
 804925f:	e8 bc f6 ff ff       	call   8048920 <warnx@plt>
 8049264:	8b 45 f4             	mov    eax,DWORD PTR [ebp-0xc]
 8049267:	eb 11                	jmp    804927a <ctf_send+0x7a>
 8049269:	8b 45 f4             	mov    eax,DWORD PTR [ebp-0xc]
 804926c:	01 45 ec             	add    DWORD PTR [ebp-0x14],eax
 804926f:	8b 45 ec             	mov    eax,DWORD PTR [ebp-0x14]
 8049272:	3b 45 f0             	cmp    eax,DWORD PTR [ebp-0x10]
 8049275:	72 ad                	jb     8049224 <ctf_send+0x24>
 8049277:	8b 45 ec             	mov    eax,DWORD PTR [ebp-0x14]
 804927a:	c9                   	leave  
 804927b:	c3                   	ret    

0804927c <ctf_sendf>:
 804927c:	55                   	push   ebp
 804927d:	89 e5                	mov    ebp,esp
 804927f:	83 ec 28             	sub    esp,0x28
 8049282:	c7 45 f0 00 00 00 00 	mov    DWORD PTR [ebp-0x10],0x0
 8049289:	c7 45 f4 00 00 00 00 	mov    DWORD PTR [ebp-0xc],0x0
 8049290:	8d 45 10             	lea    eax,[ebp+0x10]
 8049293:	89 45 ec             	mov    DWORD PTR [ebp-0x14],eax
 8049296:	8b 45 ec             	mov    eax,DWORD PTR [ebp-0x14]
 8049299:	89 44 24 08          	mov    DWORD PTR [esp+0x8],eax
 804929d:	8b 45 0c             	mov    eax,DWORD PTR [ebp+0xc]
 80492a0:	89 44 24 04          	mov    DWORD PTR [esp+0x4],eax
 80492a4:	8d 45 f0             	lea    eax,[ebp-0x10]
 80492a7:	89 04 24             	mov    DWORD PTR [esp],eax
 80492aa:	e8 61 f6 ff ff       	call   8048910 <vasprintf@plt>
 80492af:	89 45 f4             	mov    DWORD PTR [ebp-0xc],eax
 80492b2:	83 7d f4 00          	cmp    DWORD PTR [ebp-0xc],0x0
 80492b6:	78 17                	js     80492cf <ctf_sendf+0x53>
 80492b8:	8b 45 f0             	mov    eax,DWORD PTR [ebp-0x10]
 80492bb:	89 44 24 04          	mov    DWORD PTR [esp+0x4],eax
 80492bf:	8b 45 08             	mov    eax,DWORD PTR [ebp+0x8]
 80492c2:	89 04 24             	mov    DWORD PTR [esp],eax
 80492c5:	e8 36 ff ff ff       	call   8049200 <ctf_send>
 80492ca:	89 45 f4             	mov    DWORD PTR [ebp-0xc],eax
 80492cd:	eb 01                	jmp    80492d0 <ctf_sendf+0x54>
 80492cf:	90                   	nop
 80492d0:	8b 45 f0             	mov    eax,DWORD PTR [ebp-0x10]
 80492d3:	89 04 24             	mov    DWORD PTR [esp],eax
 80492d6:	e8 f5 f4 ff ff       	call   80487d0 <free@plt>
 80492db:	8b 45 f4             	mov    eax,DWORD PTR [ebp-0xc]
 80492de:	c9                   	leave  
 80492df:	c3                   	ret    

080492e0 <__libc_csu_init>:
 80492e0:	55                   	push   ebp
 80492e1:	57                   	push   edi
 80492e2:	31 ff                	xor    edi,edi
 80492e4:	56                   	push   esi
 80492e5:	53                   	push   ebx
 80492e6:	e8 35 f7 ff ff       	call   8048a20 <__x86.get_pc_thunk.bx>
 80492eb:	81 c3 15 1d 00 00    	add    ebx,0x1d15
 80492f1:	83 ec 1c             	sub    esp,0x1c
 80492f4:	8b 6c 24 30          	mov    ebp,DWORD PTR [esp+0x30]
 80492f8:	8d b3 0c ff ff ff    	lea    esi,[ebx-0xf4]
 80492fe:	e8 59 f4 ff ff       	call   804875c <_init>
 8049303:	8d 83 08 ff ff ff    	lea    eax,[ebx-0xf8]
 8049309:	29 c6                	sub    esi,eax
 804930b:	c1 fe 02             	sar    esi,0x2
 804930e:	85 f6                	test   esi,esi
 8049310:	74 27                	je     8049339 <__libc_csu_init+0x59>
 8049312:	8d b6 00 00 00 00    	lea    esi,[esi+0x0]
 8049318:	8b 44 24 38          	mov    eax,DWORD PTR [esp+0x38]
 804931c:	89 2c 24             	mov    DWORD PTR [esp],ebp
 804931f:	89 44 24 08          	mov    DWORD PTR [esp+0x8],eax
 8049323:	8b 44 24 34          	mov    eax,DWORD PTR [esp+0x34]
 8049327:	89 44 24 04          	mov    DWORD PTR [esp+0x4],eax
 804932b:	ff 94 bb 08 ff ff ff 	call   DWORD PTR [ebx+edi*4-0xf8]
 8049332:	83 c7 01             	add    edi,0x1
 8049335:	39 f7                	cmp    edi,esi
 8049337:	75 df                	jne    8049318 <__libc_csu_init+0x38>
 8049339:	83 c4 1c             	add    esp,0x1c
 804933c:	5b                   	pop    ebx
 804933d:	5e                   	pop    esi
 804933e:	5f                   	pop    edi
 804933f:	5d                   	pop    ebp
 8049340:	c3                   	ret    
 8049341:	eb 0d                	jmp    8049350 <__libc_csu_fini>
 8049343:	90                   	nop
 8049344:	90                   	nop
 8049345:	90                   	nop
 8049346:	90                   	nop
 8049347:	90                   	nop
 8049348:	90                   	nop
 8049349:	90                   	nop
 804934a:	90                   	nop
 804934b:	90                   	nop
 804934c:	90                   	nop
 804934d:	90                   	nop
 804934e:	90                   	nop
 804934f:	90                   	nop

08049350 <__libc_csu_fini>:
 8049350:	f3 c3                	repz ret 
 8049352:	66 90                	xchg   ax,ax

Disassembly of section .fini:

08049354 <_fini>:
 8049354:	53                   	push   ebx
 8049355:	83 ec 08             	sub    esp,0x8
 8049358:	e8 c3 f6 ff ff       	call   8048a20 <__x86.get_pc_thunk.bx>
 804935d:	81 c3 a3 1c 00 00    	add    ebx,0x1ca3
 8049363:	83 c4 08             	add    esp,0x8
 8049366:	5b                   	pop    ebx
 8049367:	c3                   	ret    
